
IRSM.elf:     file format elf32-littlearm

Sections:
Idx Name          Size      VMA       LMA       File off  Algn
  0 .isr_vector   0000010c  08000000  08000000  00001000  2**0
                  CONTENTS, ALLOC, LOAD, READONLY, DATA
  1 .text         00003fac  0800010c  0800010c  0000110c  2**2
                  CONTENTS, ALLOC, LOAD, READONLY, CODE
  2 .rodata       00000258  080040b8  080040b8  000050b8  2**2
                  CONTENTS, ALLOC, LOAD, READONLY, DATA
  3 .ARM.extab    00000000  08004310  08004310  00006060  2**0
                  CONTENTS, READONLY
  4 .ARM          00000008  08004310  08004310  00005310  2**2
                  CONTENTS, ALLOC, LOAD, READONLY, DATA
  5 .preinit_array 00000000  08004318  08004318  00006060  2**0
                  CONTENTS, ALLOC, LOAD, DATA
  6 .init_array   00000008  08004318  08004318  00005318  2**2
                  CONTENTS, ALLOC, LOAD, READONLY, DATA
  7 .fini_array   00000004  08004320  08004320  00005320  2**2
                  CONTENTS, ALLOC, LOAD, READONLY, DATA
  8 .data         00000060  20000000  08004324  00006000  2**2
                  CONTENTS, ALLOC, LOAD, DATA
  9 .bss          00000290  20000060  08004384  00006060  2**2
                  ALLOC
 10 ._user_heap_stack 00000600  200002f0  08004384  000062f0  2**0
                  ALLOC
 11 .ARM.attributes 00000029  00000000  00000000  00006060  2**0
                  CONTENTS, READONLY
 12 .comment      00000043  00000000  00000000  00006089  2**0
                  CONTENTS, READONLY
 13 .debug_frame  00001a70  00000000  00000000  000060cc  2**2
                  CONTENTS, READONLY, DEBUGGING, OCTETS

Disassembly of section .text:

0800010c <__do_global_dtors_aux>:
 800010c:	b510      	push	{r4, lr}
 800010e:	4c05      	ldr	r4, [pc, #20]	@ (8000124 <__do_global_dtors_aux+0x18>)
 8000110:	7823      	ldrb	r3, [r4, #0]
 8000112:	b933      	cbnz	r3, 8000122 <__do_global_dtors_aux+0x16>
 8000114:	4b04      	ldr	r3, [pc, #16]	@ (8000128 <__do_global_dtors_aux+0x1c>)
 8000116:	b113      	cbz	r3, 800011e <__do_global_dtors_aux+0x12>
 8000118:	4804      	ldr	r0, [pc, #16]	@ (800012c <__do_global_dtors_aux+0x20>)
 800011a:	f3af 8000 	nop.w
 800011e:	2301      	movs	r3, #1
 8000120:	7023      	strb	r3, [r4, #0]
 8000122:	bd10      	pop	{r4, pc}
 8000124:	20000060 	.word	0x20000060
 8000128:	00000000 	.word	0x00000000
 800012c:	080040a0 	.word	0x080040a0

08000130 <frame_dummy>:
 8000130:	b508      	push	{r3, lr}
 8000132:	4b03      	ldr	r3, [pc, #12]	@ (8000140 <frame_dummy+0x10>)
 8000134:	b11b      	cbz	r3, 800013e <frame_dummy+0xe>
 8000136:	4903      	ldr	r1, [pc, #12]	@ (8000144 <frame_dummy+0x14>)
 8000138:	4803      	ldr	r0, [pc, #12]	@ (8000148 <frame_dummy+0x18>)
 800013a:	f3af 8000 	nop.w
 800013e:	bd08      	pop	{r3, pc}
 8000140:	00000000 	.word	0x00000000
 8000144:	20000064 	.word	0x20000064
 8000148:	080040a0 	.word	0x080040a0

0800014c <strlen>:
 800014c:	4603      	mov	r3, r0
 800014e:	f813 2b01 	ldrb.w	r2, [r3], #1
 8000152:	2a00      	cmp	r2, #0
 8000154:	d1fb      	bne.n	800014e <strlen+0x2>
 8000156:	1a18      	subs	r0, r3, r0
 8000158:	3801      	subs	r0, #1
 800015a:	4770      	bx	lr

0800015c <MX_ADC1_Init>:
 800015c:	b51f      	push	{r0, r1, r2, r3, r4, lr}
 800015e:	4912      	ldr	r1, [pc, #72]	@ (80001a8 <MX_ADC1_Init+0x4c>)
 8000160:	4a12      	ldr	r2, [pc, #72]	@ (80001ac <MX_ADC1_Init+0x50>)
 8000162:	2300      	movs	r3, #0
 8000164:	2401      	movs	r4, #1
 8000166:	600a      	str	r2, [r1, #0]
 8000168:	f44f 2260 	mov.w	r2, #917504	@ 0xe0000
 800016c:	4608      	mov	r0, r1
 800016e:	e9cd 3301 	strd	r3, r3, [sp, #4]
 8000172:	9303      	str	r3, [sp, #12]
 8000174:	608b      	str	r3, [r1, #8]
 8000176:	730c      	strb	r4, [r1, #12]
 8000178:	750b      	strb	r3, [r1, #20]
 800017a:	61ca      	str	r2, [r1, #28]
 800017c:	604b      	str	r3, [r1, #4]
 800017e:	610c      	str	r4, [r1, #16]
 8000180:	f001 f85e 	bl	8001240 <HAL_ADC_Init>
 8000184:	b108      	cbz	r0, 800018a <MX_ADC1_Init+0x2e>
 8000186:	f000 fa40 	bl	800060a <Error_Handler>
 800018a:	2309      	movs	r3, #9
 800018c:	e9cd 3401 	strd	r3, r4, [sp, #4]
 8000190:	2300      	movs	r3, #0
 8000192:	4805      	ldr	r0, [pc, #20]	@ (80001a8 <MX_ADC1_Init+0x4c>)
 8000194:	a901      	add	r1, sp, #4
 8000196:	9303      	str	r3, [sp, #12]
 8000198:	f000 ffae 	bl	80010f8 <HAL_ADC_ConfigChannel>
 800019c:	b108      	cbz	r0, 80001a2 <MX_ADC1_Init+0x46>
 800019e:	f000 fa34 	bl	800060a <Error_Handler>
 80001a2:	b004      	add	sp, #16
 80001a4:	bd10      	pop	{r4, pc}
 80001a6:	bf00      	nop
 80001a8:	2000007c 	.word	0x2000007c
 80001ac:	40012400 	.word	0x40012400

080001b0 <HAL_ADC_MspInit>:
 80001b0:	b510      	push	{r4, lr}
 80001b2:	4604      	mov	r4, r0
 80001b4:	b086      	sub	sp, #24
 80001b6:	2210      	movs	r2, #16
 80001b8:	2100      	movs	r1, #0
 80001ba:	a802      	add	r0, sp, #8
 80001bc:	f003 fe91 	bl	8003ee2 <memset>
 80001c0:	6822      	ldr	r2, [r4, #0]
 80001c2:	4b10      	ldr	r3, [pc, #64]	@ (8000204 <HAL_ADC_MspInit+0x54>)
 80001c4:	429a      	cmp	r2, r3
 80001c6:	d11b      	bne.n	8000200 <HAL_ADC_MspInit+0x50>
 80001c8:	f503 436c 	add.w	r3, r3, #60416	@ 0xec00
 80001cc:	699a      	ldr	r2, [r3, #24]
 80001ce:	480e      	ldr	r0, [pc, #56]	@ (8000208 <HAL_ADC_MspInit+0x58>)
 80001d0:	f442 7200 	orr.w	r2, r2, #512	@ 0x200
 80001d4:	619a      	str	r2, [r3, #24]
 80001d6:	699a      	ldr	r2, [r3, #24]
 80001d8:	a902      	add	r1, sp, #8
 80001da:	f402 7200 	and.w	r2, r2, #512	@ 0x200
 80001de:	9200      	str	r2, [sp, #0]
 80001e0:	9a00      	ldr	r2, [sp, #0]
 80001e2:	699a      	ldr	r2, [r3, #24]
 80001e4:	f042 0208 	orr.w	r2, r2, #8
 80001e8:	619a      	str	r2, [r3, #24]
 80001ea:	699b      	ldr	r3, [r3, #24]
 80001ec:	2202      	movs	r2, #2
 80001ee:	f003 0308 	and.w	r3, r3, #8
 80001f2:	9301      	str	r3, [sp, #4]
 80001f4:	9b01      	ldr	r3, [sp, #4]
 80001f6:	2303      	movs	r3, #3
 80001f8:	e9cd 2302 	strd	r2, r3, [sp, #8]
 80001fc:	f001 f96c 	bl	80014d8 <HAL_GPIO_Init>
 8000200:	b006      	add	sp, #24
 8000202:	bd10      	pop	{r4, pc}
 8000204:	40012400 	.word	0x40012400
 8000208:	40010c00 	.word	0x40010c00

0800020c <MX_GPIO_Init>:
 800020c:	2210      	movs	r2, #16
 800020e:	b570      	push	{r4, r5, r6, lr}
 8000210:	b088      	sub	sp, #32
 8000212:	eb0d 0002 	add.w	r0, sp, r2
 8000216:	2100      	movs	r1, #0
 8000218:	f003 fe63 	bl	8003ee2 <memset>
 800021c:	4b23      	ldr	r3, [pc, #140]	@ (80002ac <MX_GPIO_Init+0xa0>)
 800021e:	f44f 5100 	mov.w	r1, #8192	@ 0x2000
 8000222:	699a      	ldr	r2, [r3, #24]
 8000224:	4822      	ldr	r0, [pc, #136]	@ (80002b0 <MX_GPIO_Init+0xa4>)
 8000226:	f042 0210 	orr.w	r2, r2, #16
 800022a:	619a      	str	r2, [r3, #24]
 800022c:	699a      	ldr	r2, [r3, #24]
 800022e:	2601      	movs	r6, #1
 8000230:	f002 0210 	and.w	r2, r2, #16
 8000234:	9200      	str	r2, [sp, #0]
 8000236:	9a00      	ldr	r2, [sp, #0]
 8000238:	699a      	ldr	r2, [r3, #24]
 800023a:	2500      	movs	r5, #0
 800023c:	f042 0220 	orr.w	r2, r2, #32
 8000240:	619a      	str	r2, [r3, #24]
 8000242:	699a      	ldr	r2, [r3, #24]
 8000244:	2402      	movs	r4, #2
 8000246:	f002 0220 	and.w	r2, r2, #32
 800024a:	9201      	str	r2, [sp, #4]
 800024c:	9a01      	ldr	r2, [sp, #4]
 800024e:	699a      	ldr	r2, [r3, #24]
 8000250:	f042 0204 	orr.w	r2, r2, #4
 8000254:	619a      	str	r2, [r3, #24]
 8000256:	699a      	ldr	r2, [r3, #24]
 8000258:	f002 0204 	and.w	r2, r2, #4
 800025c:	9202      	str	r2, [sp, #8]
 800025e:	9a02      	ldr	r2, [sp, #8]
 8000260:	699a      	ldr	r2, [r3, #24]
 8000262:	f042 0208 	orr.w	r2, r2, #8
 8000266:	619a      	str	r2, [r3, #24]
 8000268:	699b      	ldr	r3, [r3, #24]
 800026a:	2201      	movs	r2, #1
 800026c:	f003 0308 	and.w	r3, r3, #8
 8000270:	9303      	str	r3, [sp, #12]
 8000272:	9b03      	ldr	r3, [sp, #12]
 8000274:	f001 fa04 	bl	8001680 <HAL_GPIO_WritePin>
 8000278:	2200      	movs	r2, #0
 800027a:	21a0      	movs	r1, #160	@ 0xa0
 800027c:	480d      	ldr	r0, [pc, #52]	@ (80002b4 <MX_GPIO_Init+0xa8>)
 800027e:	f001 f9ff 	bl	8001680 <HAL_GPIO_WritePin>
 8000282:	f44f 5300 	mov.w	r3, #8192	@ 0x2000
 8000286:	a904      	add	r1, sp, #16
 8000288:	4809      	ldr	r0, [pc, #36]	@ (80002b0 <MX_GPIO_Init+0xa4>)
 800028a:	e9cd 3604 	strd	r3, r6, [sp, #16]
 800028e:	e9cd 5406 	strd	r5, r4, [sp, #24]
 8000292:	f001 f921 	bl	80014d8 <HAL_GPIO_Init>
 8000296:	23a0      	movs	r3, #160	@ 0xa0
 8000298:	4806      	ldr	r0, [pc, #24]	@ (80002b4 <MX_GPIO_Init+0xa8>)
 800029a:	a904      	add	r1, sp, #16
 800029c:	e9cd 3604 	strd	r3, r6, [sp, #16]
 80002a0:	e9cd 5406 	strd	r5, r4, [sp, #24]
 80002a4:	f001 f918 	bl	80014d8 <HAL_GPIO_Init>
 80002a8:	b008      	add	sp, #32
 80002aa:	bd70      	pop	{r4, r5, r6, pc}
 80002ac:	40021000 	.word	0x40021000
 80002b0:	40011000 	.word	0x40011000
 80002b4:	40010800 	.word	0x40010800

080002b8 <MX_I2C1_Init>:
 80002b8:	b508      	push	{r3, lr}
 80002ba:	490c      	ldr	r1, [pc, #48]	@ (80002ec <MX_I2C1_Init+0x34>)
 80002bc:	4b0c      	ldr	r3, [pc, #48]	@ (80002f0 <MX_I2C1_Init+0x38>)
 80002be:	4a0d      	ldr	r2, [pc, #52]	@ (80002f4 <MX_I2C1_Init+0x3c>)
 80002c0:	600b      	str	r3, [r1, #0]
 80002c2:	2300      	movs	r3, #0
 80002c4:	e9c1 2301 	strd	r2, r3, [r1, #4]
 80002c8:	f44f 4280 	mov.w	r2, #16384	@ 0x4000
 80002cc:	4608      	mov	r0, r1
 80002ce:	e9c1 2304 	strd	r2, r3, [r1, #16]
 80002d2:	e9c1 3306 	strd	r3, r3, [r1, #24]
 80002d6:	60cb      	str	r3, [r1, #12]
 80002d8:	620b      	str	r3, [r1, #32]
 80002da:	f001 fad3 	bl	8001884 <HAL_I2C_Init>
 80002de:	b118      	cbz	r0, 80002e8 <MX_I2C1_Init+0x30>
 80002e0:	e8bd 4008 	ldmia.w	sp!, {r3, lr}
 80002e4:	f000 b991 	b.w	800060a <Error_Handler>
 80002e8:	bd08      	pop	{r3, pc}
 80002ea:	bf00      	nop
 80002ec:	200000ac 	.word	0x200000ac
 80002f0:	40005400 	.word	0x40005400
 80002f4:	000186a0 	.word	0x000186a0

080002f8 <HAL_I2C_MspInit>:
 80002f8:	b510      	push	{r4, lr}
 80002fa:	4604      	mov	r4, r0
 80002fc:	b086      	sub	sp, #24
 80002fe:	2210      	movs	r2, #16
 8000300:	2100      	movs	r1, #0
 8000302:	a802      	add	r0, sp, #8
 8000304:	f003 fded 	bl	8003ee2 <memset>
 8000308:	6822      	ldr	r2, [r4, #0]
 800030a:	4b15      	ldr	r3, [pc, #84]	@ (8000360 <HAL_I2C_MspInit+0x68>)
 800030c:	429a      	cmp	r2, r3
 800030e:	d124      	bne.n	800035a <HAL_I2C_MspInit+0x62>
 8000310:	4c14      	ldr	r4, [pc, #80]	@ (8000364 <HAL_I2C_MspInit+0x6c>)
 8000312:	22c0      	movs	r2, #192	@ 0xc0
 8000314:	69a3      	ldr	r3, [r4, #24]
 8000316:	4814      	ldr	r0, [pc, #80]	@ (8000368 <HAL_I2C_MspInit+0x70>)
 8000318:	f043 0308 	orr.w	r3, r3, #8
 800031c:	61a3      	str	r3, [r4, #24]
 800031e:	69a3      	ldr	r3, [r4, #24]
 8000320:	a902      	add	r1, sp, #8
 8000322:	f003 0308 	and.w	r3, r3, #8
 8000326:	9300      	str	r3, [sp, #0]
 8000328:	9b00      	ldr	r3, [sp, #0]
 800032a:	2312      	movs	r3, #18
 800032c:	e9cd 2302 	strd	r2, r3, [sp, #8]
 8000330:	2303      	movs	r3, #3
 8000332:	9305      	str	r3, [sp, #20]
 8000334:	f001 f8d0 	bl	80014d8 <HAL_GPIO_Init>
 8000338:	2200      	movs	r2, #0
 800033a:	69e3      	ldr	r3, [r4, #28]
 800033c:	201f      	movs	r0, #31
 800033e:	f443 1300 	orr.w	r3, r3, #2097152	@ 0x200000
 8000342:	61e3      	str	r3, [r4, #28]
 8000344:	69e3      	ldr	r3, [r4, #28]
 8000346:	4611      	mov	r1, r2
 8000348:	f403 1300 	and.w	r3, r3, #2097152	@ 0x200000
 800034c:	9301      	str	r3, [sp, #4]
 800034e:	9b01      	ldr	r3, [sp, #4]
 8000350:	f001 f806 	bl	8001360 <HAL_NVIC_SetPriority>
 8000354:	201f      	movs	r0, #31
 8000356:	f001 f833 	bl	80013c0 <HAL_NVIC_EnableIRQ>
 800035a:	b006      	add	sp, #24
 800035c:	bd10      	pop	{r4, pc}
 800035e:	bf00      	nop
 8000360:	40005400 	.word	0x40005400
 8000364:	40021000 	.word	0x40021000
 8000368:	40010c00 	.word	0x40010c00

0800036c <_ZN5State7OnEnterEv>:
 800036c:	4770      	bx	lr

0800036e <_ZN5State4TickEv>:
 800036e:	4770      	bx	lr

08000370 <_ZN5State6OnExitEv>:
 8000370:	4770      	bx	lr

08000372 <_ZNSt17_Function_handlerIFvbNSt7__cxx1112basic_stringIcSt11char_traitsIcESaIcEEEEPS6_E10_M_managerERSt9_Any_dataRKS9_St18_Manager_operation>:
 8000372:	2a01      	cmp	r2, #1
 8000374:	d102      	bne.n	800037c <_ZNSt17_Function_handlerIFvbNSt7__cxx1112basic_stringIcSt11char_traitsIcESaIcEEEEPS6_E10_M_managerERSt9_Any_dataRKS9_St18_Manager_operation+0xa>
 8000376:	6001      	str	r1, [r0, #0]
 8000378:	2000      	movs	r0, #0
 800037a:	4770      	bx	lr
 800037c:	2a02      	cmp	r2, #2
 800037e:	d005      	beq.n	800038c <_ZNSt17_Function_handlerIFvbNSt7__cxx1112basic_stringIcSt11char_traitsIcESaIcEEEEPS6_E10_M_managerERSt9_Any_dataRKS9_St18_Manager_operation+0x1a>
 8000380:	2a03      	cmp	r2, #3
 8000382:	d0f9      	beq.n	8000378 <_ZNSt17_Function_handlerIFvbNSt7__cxx1112basic_stringIcSt11char_traitsIcESaIcEEEEPS6_E10_M_managerERSt9_Any_dataRKS9_St18_Manager_operation+0x6>
 8000384:	2a00      	cmp	r2, #0
 8000386:	d1f7      	bne.n	8000378 <_ZNSt17_Function_handlerIFvbNSt7__cxx1112basic_stringIcSt11char_traitsIcESaIcEEEEPS6_E10_M_managerERSt9_Any_dataRKS9_St18_Manager_operation+0x6>
 8000388:	6002      	str	r2, [r0, #0]
 800038a:	e7f5      	b.n	8000378 <_ZNSt17_Function_handlerIFvbNSt7__cxx1112basic_stringIcSt11char_traitsIcESaIcEEEEPS6_E10_M_managerERSt9_Any_dataRKS9_St18_Manager_operation+0x6>
 800038c:	680b      	ldr	r3, [r1, #0]
 800038e:	6003      	str	r3, [r0, #0]
 8000390:	e7f2      	b.n	8000378 <_ZNSt17_Function_handlerIFvbNSt7__cxx1112basic_stringIcSt11char_traitsIcESaIcEEEEPS6_E10_M_managerERSt9_Any_dataRKS9_St18_Manager_operation+0x6>

08000392 <_ZNSt7__cxx1112basic_stringIcSt11char_traitsIcESaIcEEC2ERKS4_.isra.0>:
 8000392:	b573      	push	{r0, r1, r4, r5, r6, lr}
 8000394:	f100 0308 	add.w	r3, r0, #8
 8000398:	6003      	str	r3, [r0, #0]
 800039a:	e9d1 5200 	ldrd	r5, r2, [r1]
 800039e:	2a0f      	cmp	r2, #15
 80003a0:	4604      	mov	r4, r0
 80003a2:	eb05 0602 	add.w	r6, r5, r2
 80003a6:	9201      	str	r2, [sp, #4]
 80003a8:	d907      	bls.n	80003ba <_ZNSt7__cxx1112basic_stringIcSt11char_traitsIcESaIcEEC2ERKS4_.isra.0+0x28>
 80003aa:	2200      	movs	r2, #0
 80003ac:	a901      	add	r1, sp, #4
 80003ae:	f003 fad5 	bl	800395c <_ZNSt7__cxx1112basic_stringIcSt11char_traitsIcESaIcEE9_M_createERjj>
 80003b2:	4603      	mov	r3, r0
 80003b4:	9a01      	ldr	r2, [sp, #4]
 80003b6:	6020      	str	r0, [r4, #0]
 80003b8:	60a2      	str	r2, [r4, #8]
 80003ba:	4632      	mov	r2, r6
 80003bc:	4629      	mov	r1, r5
 80003be:	4618      	mov	r0, r3
 80003c0:	f003 fb32 	bl	8003a28 <_ZNSt7__cxx1112basic_stringIcSt11char_traitsIcESaIcEE13_S_copy_charsEPcS5_S5_>
 80003c4:	2100      	movs	r1, #0
 80003c6:	9b01      	ldr	r3, [sp, #4]
 80003c8:	6822      	ldr	r2, [r4, #0]
 80003ca:	6063      	str	r3, [r4, #4]
 80003cc:	54d1      	strb	r1, [r2, r3]
 80003ce:	b002      	add	sp, #8
 80003d0:	bd70      	pop	{r4, r5, r6, pc}
	...

080003d4 <_ZNSt7__cxx1112basic_stringIcSt11char_traitsIcESaIcEEC2EPKcRKS3_.isra.0>:
 80003d4:	b5f7      	push	{r0, r1, r2, r4, r5, r6, r7, lr}
 80003d6:	f100 0508 	add.w	r5, r0, #8
 80003da:	4604      	mov	r4, r0
 80003dc:	460e      	mov	r6, r1
 80003de:	6005      	str	r5, [r0, #0]
 80003e0:	b911      	cbnz	r1, 80003e8 <_ZNSt7__cxx1112basic_stringIcSt11char_traitsIcESaIcEEC2EPKcRKS3_.isra.0+0x14>
 80003e2:	4810      	ldr	r0, [pc, #64]	@ (8000424 <_ZNSt7__cxx1112basic_stringIcSt11char_traitsIcESaIcEEC2EPKcRKS3_.isra.0+0x50>)
 80003e4:	f003 fa9a 	bl	800391c <_ZSt19__throw_logic_errorPKc>
 80003e8:	4608      	mov	r0, r1
 80003ea:	f7ff feaf 	bl	800014c <strlen>
 80003ee:	280f      	cmp	r0, #15
 80003f0:	eb06 0700 	add.w	r7, r6, r0
 80003f4:	9001      	str	r0, [sp, #4]
 80003f6:	d908      	bls.n	800040a <_ZNSt7__cxx1112basic_stringIcSt11char_traitsIcESaIcEEC2EPKcRKS3_.isra.0+0x36>
 80003f8:	2200      	movs	r2, #0
 80003fa:	4620      	mov	r0, r4
 80003fc:	a901      	add	r1, sp, #4
 80003fe:	f003 faad 	bl	800395c <_ZNSt7__cxx1112basic_stringIcSt11char_traitsIcESaIcEE9_M_createERjj>
 8000402:	4605      	mov	r5, r0
 8000404:	9b01      	ldr	r3, [sp, #4]
 8000406:	6020      	str	r0, [r4, #0]
 8000408:	60a3      	str	r3, [r4, #8]
 800040a:	463a      	mov	r2, r7
 800040c:	4631      	mov	r1, r6
 800040e:	4628      	mov	r0, r5
 8000410:	f003 fb0f 	bl	8003a32 <_ZNSt7__cxx1112basic_stringIcSt11char_traitsIcESaIcEE13_S_copy_charsEPcPKcS7_>
 8000414:	2100      	movs	r1, #0
 8000416:	9b01      	ldr	r3, [sp, #4]
 8000418:	6822      	ldr	r2, [r4, #0]
 800041a:	6063      	str	r3, [r4, #4]
 800041c:	54d1      	strb	r1, [r2, r3]
 800041e:	b003      	add	sp, #12
 8000420:	bdf0      	pop	{r4, r5, r6, r7, pc}
 8000422:	bf00      	nop
 8000424:	080040b8 	.word	0x080040b8

08000428 <_ZNSt7__cxx1112basic_stringIcSt11char_traitsIcESaIcEE6appendEPKcj.isra.0>:
 8000428:	b508      	push	{r3, lr}
 800042a:	6843      	ldr	r3, [r0, #4]
 800042c:	f1c3 537f 	rsb	r3, r3, #1069547520	@ 0x3fc00000
 8000430:	f503 137f 	add.w	r3, r3, #4177920	@ 0x3fc000
 8000434:	f503 537f 	add.w	r3, r3, #16320	@ 0x3fc0
 8000438:	333f      	adds	r3, #63	@ 0x3f
 800043a:	429a      	cmp	r2, r3
 800043c:	d902      	bls.n	8000444 <_ZNSt7__cxx1112basic_stringIcSt11char_traitsIcESaIcEE6appendEPKcj.isra.0+0x1c>
 800043e:	4803      	ldr	r0, [pc, #12]	@ (800044c <_ZNSt7__cxx1112basic_stringIcSt11char_traitsIcESaIcEE6appendEPKcj.isra.0+0x24>)
 8000440:	f003 fa6f 	bl	8003922 <_ZSt20__throw_length_errorPKc>
 8000444:	e8bd 4008 	ldmia.w	sp!, {r3, lr}
 8000448:	f003 bc2e 	b.w	8003ca8 <_ZNSt7__cxx1112basic_stringIcSt11char_traitsIcESaIcEE9_M_appendEPKcj>
 800044c:	080040ea 	.word	0x080040ea

08000450 <_ZNSt7__cxx1112basic_stringIcSt11char_traitsIcESaIcEEC2EOS4_.isra.0>:
 8000450:	b5f8      	push	{r3, r4, r5, r6, r7, lr}
 8000452:	f100 0708 	add.w	r7, r0, #8
 8000456:	6007      	str	r7, [r0, #0]
 8000458:	4605      	mov	r5, r0
 800045a:	4608      	mov	r0, r1
 800045c:	460c      	mov	r4, r1
 800045e:	f003 fa77 	bl	8003950 <_ZNKSt7__cxx1112basic_stringIcSt11char_traitsIcESaIcEE11_M_is_localEv>
 8000462:	f104 0608 	add.w	r6, r4, #8
 8000466:	b168      	cbz	r0, 8000484 <_ZNSt7__cxx1112basic_stringIcSt11char_traitsIcESaIcEEC2EOS4_.isra.0+0x34>
 8000468:	6862      	ldr	r2, [r4, #4]
 800046a:	3201      	adds	r2, #1
 800046c:	d003      	beq.n	8000476 <_ZNSt7__cxx1112basic_stringIcSt11char_traitsIcESaIcEEC2EOS4_.isra.0+0x26>
 800046e:	4631      	mov	r1, r6
 8000470:	4638      	mov	r0, r7
 8000472:	f003 fdbf 	bl	8003ff4 <memcpy>
 8000476:	6863      	ldr	r3, [r4, #4]
 8000478:	6026      	str	r6, [r4, #0]
 800047a:	606b      	str	r3, [r5, #4]
 800047c:	2300      	movs	r3, #0
 800047e:	7223      	strb	r3, [r4, #8]
 8000480:	6063      	str	r3, [r4, #4]
 8000482:	bdf8      	pop	{r3, r4, r5, r6, r7, pc}
 8000484:	6823      	ldr	r3, [r4, #0]
 8000486:	602b      	str	r3, [r5, #0]
 8000488:	68a3      	ldr	r3, [r4, #8]
 800048a:	60ab      	str	r3, [r5, #8]
 800048c:	e7f3      	b.n	8000476 <_ZNSt7__cxx1112basic_stringIcSt11char_traitsIcESaIcEEC2EOS4_.isra.0+0x26>

0800048e <_ZNSt17_Function_handlerIFvbNSt7__cxx1112basic_stringIcSt11char_traitsIcESaIcEEEEPS6_E9_M_invokeERKSt9_Any_dataObOS5_>:
 800048e:	b530      	push	{r4, r5, lr}
 8000490:	780d      	ldrb	r5, [r1, #0]
 8000492:	b087      	sub	sp, #28
 8000494:	4611      	mov	r1, r2
 8000496:	6804      	ldr	r4, [r0, #0]
 8000498:	4668      	mov	r0, sp
 800049a:	f7ff ffd9 	bl	8000450 <_ZNSt7__cxx1112basic_stringIcSt11char_traitsIcESaIcEEC2EOS4_.isra.0>
 800049e:	4669      	mov	r1, sp
 80004a0:	4628      	mov	r0, r5
 80004a2:	47a0      	blx	r4
 80004a4:	4668      	mov	r0, sp
 80004a6:	f003 fa77 	bl	8003998 <_ZNSt7__cxx1112basic_stringIcSt11char_traitsIcESaIcEE10_M_disposeEv>
 80004aa:	b007      	add	sp, #28
 80004ac:	bd30      	pop	{r4, r5, pc}

080004ae <_ZN9LCDDevice7SetLineEh>:
 80004ae:	b508      	push	{r3, lr}
 80004b0:	2300      	movs	r3, #0
 80004b2:	3901      	subs	r1, #1
 80004b4:	7243      	strb	r3, [r0, #9]
 80004b6:	2903      	cmp	r1, #3
 80004b8:	d804      	bhi.n	80004c4 <_ZN9LCDDevice7SetLineEh+0x16>
 80004ba:	e8df f001 	tbb	[pc, r1]
 80004be:	0702      	.short	0x0702
 80004c0:	130e      	.short	0x130e
 80004c2:	2301      	movs	r3, #1
 80004c4:	2200      	movs	r2, #0
 80004c6:	2180      	movs	r1, #128	@ 0x80
 80004c8:	7203      	strb	r3, [r0, #8]
 80004ca:	e003      	b.n	80004d4 <_ZN9LCDDevice7SetLineEh+0x26>
 80004cc:	2302      	movs	r3, #2
 80004ce:	2200      	movs	r2, #0
 80004d0:	21c0      	movs	r1, #192	@ 0xc0
 80004d2:	7203      	strb	r3, [r0, #8]
 80004d4:	f000 f80b 	bl	80004ee <_ZN9LCDDevice4SendEhh>
 80004d8:	bd08      	pop	{r3, pc}
 80004da:	2303      	movs	r3, #3
 80004dc:	2200      	movs	r2, #0
 80004de:	2194      	movs	r1, #148	@ 0x94
 80004e0:	7203      	strb	r3, [r0, #8]
 80004e2:	e7f7      	b.n	80004d4 <_ZN9LCDDevice7SetLineEh+0x26>
 80004e4:	2304      	movs	r3, #4
 80004e6:	2200      	movs	r2, #0
 80004e8:	21d4      	movs	r1, #212	@ 0xd4
 80004ea:	7203      	strb	r3, [r0, #8]
 80004ec:	e7f2      	b.n	80004d4 <_ZN9LCDDevice7SetLineEh+0x26>

080004ee <_ZN9LCDDevice4SendEhh>:
 80004ee:	b57f      	push	{r0, r1, r2, r3, r4, r5, r6, lr}
 80004f0:	4605      	mov	r5, r0
 80004f2:	460e      	mov	r6, r1
 80004f4:	4614      	mov	r4, r2
 80004f6:	b12a      	cbz	r2, 8000504 <_ZN9LCDDevice4SendEhh+0x16>
 80004f8:	7a43      	ldrb	r3, [r0, #9]
 80004fa:	3301      	adds	r3, #1
 80004fc:	b2db      	uxtb	r3, r3
 80004fe:	2b15      	cmp	r3, #21
 8000500:	d02d      	beq.n	800055e <_ZN9LCDDevice4SendEhh+0x70>
 8000502:	7243      	strb	r3, [r0, #9]
 8000504:	f04f 33ff 	mov.w	r3, #4294967295
 8000508:	2201      	movs	r2, #1
 800050a:	8829      	ldrh	r1, [r5, #0]
 800050c:	6868      	ldr	r0, [r5, #4]
 800050e:	f001 fb3b 	bl	8001b88 <HAL_I2C_IsDeviceReady>
 8000512:	2800      	cmp	r0, #0
 8000514:	d1f6      	bne.n	8000504 <_ZN9LCDDevice4SendEhh+0x16>
 8000516:	f026 030f 	bic.w	r3, r6, #15
 800051a:	4323      	orrs	r3, r4
 800051c:	ea44 1406 	orr.w	r4, r4, r6, lsl #4
 8000520:	f043 020c 	orr.w	r2, r3, #12
 8000524:	b2e4      	uxtb	r4, r4
 8000526:	f043 0308 	orr.w	r3, r3, #8
 800052a:	f88d 300d 	strb.w	r3, [sp, #13]
 800052e:	f044 030c 	orr.w	r3, r4, #12
 8000532:	f88d 300e 	strb.w	r3, [sp, #14]
 8000536:	f04f 33ff 	mov.w	r3, #4294967295
 800053a:	9300      	str	r3, [sp, #0]
 800053c:	8829      	ldrh	r1, [r5, #0]
 800053e:	2304      	movs	r3, #4
 8000540:	f88d 200c 	strb.w	r2, [sp, #12]
 8000544:	6868      	ldr	r0, [r5, #4]
 8000546:	aa03      	add	r2, sp, #12
 8000548:	f044 0408 	orr.w	r4, r4, #8
 800054c:	f88d 400f 	strb.w	r4, [sp, #15]
 8000550:	f001 fa40 	bl	80019d4 <HAL_I2C_Master_Transmit>
 8000554:	2005      	movs	r0, #5
 8000556:	f000 fdbd 	bl	80010d4 <HAL_Delay>
 800055a:	b004      	add	sp, #16
 800055c:	bd70      	pop	{r4, r5, r6, pc}
 800055e:	2300      	movs	r3, #0
 8000560:	7a01      	ldrb	r1, [r0, #8]
 8000562:	7243      	strb	r3, [r0, #9]
 8000564:	3101      	adds	r1, #1
 8000566:	b2c9      	uxtb	r1, r1
 8000568:	f7ff ffa1 	bl	80004ae <_ZN9LCDDevice7SetLineEh>
 800056c:	e7ca      	b.n	8000504 <_ZN9LCDDevice4SendEhh+0x16>

0800056e <_ZN9LCDDevice5WriteENSt7__cxx1112basic_stringIcSt11char_traitsIcESaIcEEE>:
 800056e:	b570      	push	{r4, r5, r6, lr}
 8000570:	e9d1 4500 	ldrd	r4, r5, [r1]
 8000574:	4606      	mov	r6, r0
 8000576:	4425      	add	r5, r4
 8000578:	42a5      	cmp	r5, r4
 800057a:	d100      	bne.n	800057e <_ZN9LCDDevice5WriteENSt7__cxx1112basic_stringIcSt11char_traitsIcESaIcEEE+0x10>
 800057c:	bd70      	pop	{r4, r5, r6, pc}
 800057e:	2201      	movs	r2, #1
 8000580:	4630      	mov	r0, r6
 8000582:	f814 1b01 	ldrb.w	r1, [r4], #1
 8000586:	f7ff ffb2 	bl	80004ee <_ZN9LCDDevice4SendEhh>
 800058a:	e7f5      	b.n	8000578 <_ZN9LCDDevice5WriteENSt7__cxx1112basic_stringIcSt11char_traitsIcESaIcEEE+0xa>

0800058c <_Z18SystemClock_Configv>:
 800058c:	b510      	push	{r4, lr}
 800058e:	b094      	sub	sp, #80	@ 0x50
 8000590:	2214      	movs	r2, #20
 8000592:	2100      	movs	r1, #0
 8000594:	a80c      	add	r0, sp, #48	@ 0x30
 8000596:	f003 fca4 	bl	8003ee2 <memset>
 800059a:	2214      	movs	r2, #20
 800059c:	2100      	movs	r1, #0
 800059e:	eb0d 0002 	add.w	r0, sp, r2
 80005a2:	f003 fc9e 	bl	8003ee2 <memset>
 80005a6:	2210      	movs	r2, #16
 80005a8:	2100      	movs	r1, #0
 80005aa:	a801      	add	r0, sp, #4
 80005ac:	f003 fc99 	bl	8003ee2 <memset>
 80005b0:	2402      	movs	r4, #2
 80005b2:	f44f 3380 	mov.w	r3, #65536	@ 0x10000
 80005b6:	2201      	movs	r2, #1
 80005b8:	e9cd 4311 	strd	r4, r3, [sp, #68]	@ 0x44
 80005bc:	e9cd 230a 	strd	r2, r3, [sp, #40]	@ 0x28
 80005c0:	f44f 13e0 	mov.w	r3, #1835008	@ 0x1c0000
 80005c4:	a80a      	add	r0, sp, #40	@ 0x28
 80005c6:	920e      	str	r2, [sp, #56]	@ 0x38
 80005c8:	9313      	str	r3, [sp, #76]	@ 0x4c
 80005ca:	f002 f94d 	bl	8002868 <HAL_RCC_OscConfig>
 80005ce:	b108      	cbz	r0, 80005d4 <_Z18SystemClock_Configv+0x48>
 80005d0:	b672      	cpsid	i
 80005d2:	e7fe      	b.n	80005d2 <_Z18SystemClock_Configv+0x46>
 80005d4:	230f      	movs	r3, #15
 80005d6:	e9cd 3405 	strd	r3, r4, [sp, #20]
 80005da:	f44f 6380 	mov.w	r3, #1024	@ 0x400
 80005de:	9007      	str	r0, [sp, #28]
 80005e0:	e9cd 3008 	strd	r3, r0, [sp, #32]
 80005e4:	4621      	mov	r1, r4
 80005e6:	a805      	add	r0, sp, #20
 80005e8:	f002 fb00 	bl	8002bec <HAL_RCC_ClockConfig>
 80005ec:	b108      	cbz	r0, 80005f2 <_Z18SystemClock_Configv+0x66>
 80005ee:	b672      	cpsid	i
 80005f0:	e7fe      	b.n	80005f0 <_Z18SystemClock_Configv+0x64>
 80005f2:	f44f 4300 	mov.w	r3, #32768	@ 0x8000
 80005f6:	a801      	add	r0, sp, #4
 80005f8:	9401      	str	r4, [sp, #4]
 80005fa:	9303      	str	r3, [sp, #12]
 80005fc:	f002 fbb2 	bl	8002d64 <HAL_RCCEx_PeriphCLKConfig>
 8000600:	b108      	cbz	r0, 8000606 <_Z18SystemClock_Configv+0x7a>
 8000602:	b672      	cpsid	i
 8000604:	e7fe      	b.n	8000604 <_Z18SystemClock_Configv+0x78>
 8000606:	b014      	add	sp, #80	@ 0x50
 8000608:	bd10      	pop	{r4, pc}

0800060a <Error_Handler>:
 800060a:	b672      	cpsid	i
 800060c:	e7fe      	b.n	800060c <Error_Handler+0x2>

0800060e <_ZSteqIcSt11char_traitsIcESaIcEEbRKNSt7__cxx1112basic_stringIT_T0_T1_EESA_>:
 800060e:	b508      	push	{r3, lr}
 8000610:	6842      	ldr	r2, [r0, #4]
 8000612:	684b      	ldr	r3, [r1, #4]
 8000614:	429a      	cmp	r2, r3
 8000616:	d108      	bne.n	800062a <_ZSteqIcSt11char_traitsIcESaIcEEbRKNSt7__cxx1112basic_stringIT_T0_T1_EESA_+0x1c>
 8000618:	b14a      	cbz	r2, 800062e <_ZSteqIcSt11char_traitsIcESaIcEEbRKNSt7__cxx1112basic_stringIT_T0_T1_EESA_+0x20>
 800061a:	6809      	ldr	r1, [r1, #0]
 800061c:	6800      	ldr	r0, [r0, #0]
 800061e:	f003 fc37 	bl	8003e90 <memcmp>
 8000622:	fab0 f080 	clz	r0, r0
 8000626:	0940      	lsrs	r0, r0, #5
 8000628:	bd08      	pop	{r3, pc}
 800062a:	2000      	movs	r0, #0
 800062c:	e7fc      	b.n	8000628 <_ZSteqIcSt11char_traitsIcESaIcEEbRKNSt7__cxx1112basic_stringIT_T0_T1_EESA_+0x1a>
 800062e:	2001      	movs	r0, #1
 8000630:	e7fa      	b.n	8000628 <_ZSteqIcSt11char_traitsIcESaIcEEbRKNSt7__cxx1112basic_stringIT_T0_T1_EESA_+0x1a>

08000632 <_Z10CheckStateRNSt7__cxx114listIP5StateSaIS2_EEENS_12basic_stringIcSt11char_traitsIcESaIcEEE>:
 8000632:	b570      	push	{r4, r5, r6, lr}
 8000634:	4605      	mov	r5, r0
 8000636:	460e      	mov	r6, r1
 8000638:	6804      	ldr	r4, [r0, #0]
 800063a:	42a5      	cmp	r5, r4
 800063c:	d101      	bne.n	8000642 <_Z10CheckStateRNSt7__cxx114listIP5StateSaIS2_EEENS_12basic_stringIcSt11char_traitsIcESaIcEEE+0x10>
 800063e:	2000      	movs	r0, #0
 8000640:	bd70      	pop	{r4, r5, r6, pc}
 8000642:	68a0      	ldr	r0, [r4, #8]
 8000644:	4631      	mov	r1, r6
 8000646:	3004      	adds	r0, #4
 8000648:	f7ff ffe1 	bl	800060e <_ZSteqIcSt11char_traitsIcESaIcEEbRKNSt7__cxx1112basic_stringIT_T0_T1_EESA_>
 800064c:	2800      	cmp	r0, #0
 800064e:	d1f7      	bne.n	8000640 <_Z10CheckStateRNSt7__cxx114listIP5StateSaIS2_EEENS_12basic_stringIcSt11char_traitsIcESaIcEEE+0xe>
 8000650:	6824      	ldr	r4, [r4, #0]
 8000652:	e7f2      	b.n	800063a <_Z10CheckStateRNSt7__cxx114listIP5StateSaIS2_EEENS_12basic_stringIcSt11char_traitsIcESaIcEEE+0x8>

08000654 <_Z9FindStateRNSt7__cxx114listIP5StateSaIS2_EEENS_12basic_stringIcSt11char_traitsIcESaIcEEE>:
 8000654:	b5f8      	push	{r3, r4, r5, r6, r7, lr}
 8000656:	4605      	mov	r5, r0
 8000658:	460f      	mov	r7, r1
 800065a:	6804      	ldr	r4, [r0, #0]
 800065c:	42a5      	cmp	r5, r4
 800065e:	d102      	bne.n	8000666 <_Z9FindStateRNSt7__cxx114listIP5StateSaIS2_EEENS_12basic_stringIcSt11char_traitsIcESaIcEEE+0x12>
 8000660:	2600      	movs	r6, #0
 8000662:	4630      	mov	r0, r6
 8000664:	bdf8      	pop	{r3, r4, r5, r6, r7, pc}
 8000666:	68a6      	ldr	r6, [r4, #8]
 8000668:	4639      	mov	r1, r7
 800066a:	1d30      	adds	r0, r6, #4
 800066c:	f7ff ffcf 	bl	800060e <_ZSteqIcSt11char_traitsIcESaIcEEbRKNSt7__cxx1112basic_stringIT_T0_T1_EESA_>
 8000670:	2800      	cmp	r0, #0
 8000672:	d1f6      	bne.n	8000662 <_Z9FindStateRNSt7__cxx114listIP5StateSaIS2_EEENS_12basic_stringIcSt11char_traitsIcESaIcEEE+0xe>
 8000674:	6824      	ldr	r4, [r4, #0]
 8000676:	e7f1      	b.n	800065c <_Z9FindStateRNSt7__cxx114listIP5StateSaIS2_EEENS_12basic_stringIcSt11char_traitsIcESaIcEEE+0x8>

08000678 <_ZStplIcSt11char_traitsIcESaIcEENSt7__cxx1112basic_stringIT_T0_T1_EEPKS5_RKS8_>:
 8000678:	e92d 41f0 	stmdb	sp!, {r4, r5, r6, r7, r8, lr}
 800067c:	4604      	mov	r4, r0
 800067e:	4617      	mov	r7, r2
 8000680:	4608      	mov	r0, r1
 8000682:	460d      	mov	r5, r1
 8000684:	f7ff fd62 	bl	800014c <strlen>
 8000688:	e9d7 8700 	ldrd	r8, r7, [r7]
 800068c:	f104 0308 	add.w	r3, r4, #8
 8000690:	6023      	str	r3, [r4, #0]
 8000692:	2300      	movs	r3, #0
 8000694:	4606      	mov	r6, r0
 8000696:	6063      	str	r3, [r4, #4]
 8000698:	7223      	strb	r3, [r4, #8]
 800069a:	19c1      	adds	r1, r0, r7
 800069c:	4620      	mov	r0, r4
 800069e:	f003 fa33 	bl	8003b08 <_ZNSt7__cxx1112basic_stringIcSt11char_traitsIcESaIcEE7reserveEj>
 80006a2:	4632      	mov	r2, r6
 80006a4:	4629      	mov	r1, r5
 80006a6:	4620      	mov	r0, r4
 80006a8:	f7ff febe 	bl	8000428 <_ZNSt7__cxx1112basic_stringIcSt11char_traitsIcESaIcEE6appendEPKcj.isra.0>
 80006ac:	4620      	mov	r0, r4
 80006ae:	463a      	mov	r2, r7
 80006b0:	4641      	mov	r1, r8
 80006b2:	f7ff feb9 	bl	8000428 <_ZNSt7__cxx1112basic_stringIcSt11char_traitsIcESaIcEE6appendEPKcj.isra.0>
 80006b6:	4620      	mov	r0, r4
 80006b8:	e8bd 81f0 	ldmia.w	sp!, {r4, r5, r6, r7, r8, pc}

080006bc <_Z3LogbNSt7__cxx1112basic_stringIcSt11char_traitsIcESaIcEEE>:
 80006bc:	b5f0      	push	{r4, r5, r6, r7, lr}
 80006be:	460a      	mov	r2, r1
 80006c0:	4b27      	ldr	r3, [pc, #156]	@ (8000760 <_Z3LogbNSt7__cxx1112basic_stringIcSt11char_traitsIcESaIcEEE+0xa4>)
 80006c2:	460c      	mov	r4, r1
 80006c4:	4927      	ldr	r1, [pc, #156]	@ (8000764 <_Z3LogbNSt7__cxx1112basic_stringIcSt11char_traitsIcESaIcEEE+0xa8>)
 80006c6:	b087      	sub	sp, #28
 80006c8:	2800      	cmp	r0, #0
 80006ca:	bf08      	it	eq
 80006cc:	4619      	moveq	r1, r3
 80006ce:	4668      	mov	r0, sp
 80006d0:	f7ff ffd2 	bl	8000678 <_ZStplIcSt11char_traitsIcESaIcEENSt7__cxx1112basic_stringIT_T0_T1_EEPKS5_RKS8_>
 80006d4:	4668      	mov	r0, sp
 80006d6:	f003 f93b 	bl	8003950 <_ZNKSt7__cxx1112basic_stringIcSt11char_traitsIcESaIcEE11_M_is_localEv>
 80006da:	9e01      	ldr	r6, [sp, #4]
 80006dc:	4605      	mov	r5, r0
 80006de:	b1f0      	cbz	r0, 800071e <_Z3LogbNSt7__cxx1112basic_stringIcSt11char_traitsIcESaIcEEE+0x62>
 80006e0:	b126      	cbz	r6, 80006ec <_Z3LogbNSt7__cxx1112basic_stringIcSt11char_traitsIcESaIcEEE+0x30>
 80006e2:	4632      	mov	r2, r6
 80006e4:	9900      	ldr	r1, [sp, #0]
 80006e6:	6820      	ldr	r0, [r4, #0]
 80006e8:	f003 f988 	bl	80039fc <_ZNSt7__cxx1112basic_stringIcSt11char_traitsIcESaIcEE7_S_copyEPcPKcj>
 80006ec:	2100      	movs	r1, #0
 80006ee:	9b01      	ldr	r3, [sp, #4]
 80006f0:	6822      	ldr	r2, [r4, #0]
 80006f2:	6063      	str	r3, [r4, #4]
 80006f4:	54d1      	strb	r1, [r2, r3]
 80006f6:	2300      	movs	r3, #0
 80006f8:	9a00      	ldr	r2, [sp, #0]
 80006fa:	9301      	str	r3, [sp, #4]
 80006fc:	4668      	mov	r0, sp
 80006fe:	7013      	strb	r3, [r2, #0]
 8000700:	f003 f94a 	bl	8003998 <_ZNSt7__cxx1112basic_stringIcSt11char_traitsIcESaIcEE10_M_disposeEv>
 8000704:	6863      	ldr	r3, [r4, #4]
 8000706:	f1c3 537f 	rsb	r3, r3, #1069547520	@ 0x3fc00000
 800070a:	f503 137f 	add.w	r3, r3, #4177920	@ 0x3fc000
 800070e:	f503 537f 	add.w	r3, r3, #16320	@ 0x3fc0
 8000712:	333f      	adds	r3, #63	@ 0x3f
 8000714:	2b01      	cmp	r3, #1
 8000716:	d814      	bhi.n	8000742 <_Z3LogbNSt7__cxx1112basic_stringIcSt11char_traitsIcESaIcEEE+0x86>
 8000718:	4813      	ldr	r0, [pc, #76]	@ (8000768 <_Z3LogbNSt7__cxx1112basic_stringIcSt11char_traitsIcESaIcEEE+0xac>)
 800071a:	f003 f902 	bl	8003922 <_ZSt20__throw_length_errorPKc>
 800071e:	4620      	mov	r0, r4
 8000720:	f003 f916 	bl	8003950 <_ZNKSt7__cxx1112basic_stringIcSt11char_traitsIcESaIcEE11_M_is_localEv>
 8000724:	b908      	cbnz	r0, 800072a <_Z3LogbNSt7__cxx1112basic_stringIcSt11char_traitsIcESaIcEEE+0x6e>
 8000726:	6825      	ldr	r5, [r4, #0]
 8000728:	68a7      	ldr	r7, [r4, #8]
 800072a:	9b00      	ldr	r3, [sp, #0]
 800072c:	e9c4 3600 	strd	r3, r6, [r4]
 8000730:	9b02      	ldr	r3, [sp, #8]
 8000732:	60a3      	str	r3, [r4, #8]
 8000734:	b115      	cbz	r5, 800073c <_Z3LogbNSt7__cxx1112basic_stringIcSt11char_traitsIcESaIcEEE+0x80>
 8000736:	9500      	str	r5, [sp, #0]
 8000738:	9702      	str	r7, [sp, #8]
 800073a:	e7dc      	b.n	80006f6 <_Z3LogbNSt7__cxx1112basic_stringIcSt11char_traitsIcESaIcEEE+0x3a>
 800073c:	ab02      	add	r3, sp, #8
 800073e:	9300      	str	r3, [sp, #0]
 8000740:	e7d9      	b.n	80006f6 <_Z3LogbNSt7__cxx1112basic_stringIcSt11char_traitsIcESaIcEEE+0x3a>
 8000742:	2202      	movs	r2, #2
 8000744:	4620      	mov	r0, r4
 8000746:	4909      	ldr	r1, [pc, #36]	@ (800076c <_Z3LogbNSt7__cxx1112basic_stringIcSt11char_traitsIcESaIcEEE+0xb0>)
 8000748:	f003 faae 	bl	8003ca8 <_ZNSt7__cxx1112basic_stringIcSt11char_traitsIcESaIcEE9_M_appendEPKcj>
 800074c:	230a      	movs	r3, #10
 800074e:	88a2      	ldrh	r2, [r4, #4]
 8000750:	6821      	ldr	r1, [r4, #0]
 8000752:	4807      	ldr	r0, [pc, #28]	@ (8000770 <_Z3LogbNSt7__cxx1112basic_stringIcSt11char_traitsIcESaIcEEE+0xb4>)
 8000754:	b007      	add	sp, #28
 8000756:	e8bd 40f0 	ldmia.w	sp!, {r4, r5, r6, r7, lr}
 800075a:	f002 be9c 	b.w	8003496 <HAL_UART_Transmit>
 800075e:	bf00      	nop
 8000760:	08004109 	.word	0x08004109
 8000764:	080040ff 	.word	0x080040ff
 8000768:	080040ea 	.word	0x080040ea
 800076c:	08004112 	.word	0x08004112
 8000770:	20000158 	.word	0x20000158

08000774 <_ZNKSt8functionIFvbNSt7__cxx1112basic_stringIcSt11char_traitsIcESaIcEEEEEclEbS5_>:
 8000774:	b507      	push	{r0, r1, r2, lr}
 8000776:	f88d 1007 	strb.w	r1, [sp, #7]
 800077a:	6881      	ldr	r1, [r0, #8]
 800077c:	b909      	cbnz	r1, 8000782 <_ZNKSt8functionIFvbNSt7__cxx1112basic_stringIcSt11char_traitsIcESaIcEEEEEclEbS5_+0xe>
 800077e:	f003 f8d7 	bl	8003930 <_ZSt25__throw_bad_function_callv>
 8000782:	68c3      	ldr	r3, [r0, #12]
 8000784:	f10d 0107 	add.w	r1, sp, #7
 8000788:	4798      	blx	r3
 800078a:	b003      	add	sp, #12
 800078c:	bd00      	pop	{pc}
	...

08000790 <_ZN6State16OnExitEv>:
 8000790:	b510      	push	{r4, lr}
 8000792:	69c4      	ldr	r4, [r0, #28]
 8000794:	b086      	sub	sp, #24
 8000796:	4668      	mov	r0, sp
 8000798:	4906      	ldr	r1, [pc, #24]	@ (80007b4 <_ZN6State16OnExitEv+0x24>)
 800079a:	3424      	adds	r4, #36	@ 0x24
 800079c:	f7ff fe1a 	bl	80003d4 <_ZNSt7__cxx1112basic_stringIcSt11char_traitsIcESaIcEEC2EPKcRKS3_.isra.0>
 80007a0:	466a      	mov	r2, sp
 80007a2:	2100      	movs	r1, #0
 80007a4:	4620      	mov	r0, r4
 80007a6:	f7ff ffe5 	bl	8000774 <_ZNKSt8functionIFvbNSt7__cxx1112basic_stringIcSt11char_traitsIcESaIcEEEEEclEbS5_>
 80007aa:	4668      	mov	r0, sp
 80007ac:	f003 f8f4 	bl	8003998 <_ZNSt7__cxx1112basic_stringIcSt11char_traitsIcESaIcEE10_M_disposeEv>
 80007b0:	b006      	add	sp, #24
 80007b2:	bd10      	pop	{r4, pc}
 80007b4:	08004115 	.word	0x08004115

080007b8 <_ZN6State14TickEv>:
 80007b8:	b530      	push	{r4, r5, lr}
 80007ba:	4604      	mov	r4, r0
 80007bc:	69c5      	ldr	r5, [r0, #28]
 80007be:	b087      	sub	sp, #28
 80007c0:	4668      	mov	r0, sp
 80007c2:	4919      	ldr	r1, [pc, #100]	@ (8000828 <_ZN6State14TickEv+0x70>)
 80007c4:	3524      	adds	r5, #36	@ 0x24
 80007c6:	f7ff fe05 	bl	80003d4 <_ZNSt7__cxx1112basic_stringIcSt11char_traitsIcESaIcEEC2EPKcRKS3_.isra.0>
 80007ca:	466a      	mov	r2, sp
 80007cc:	2100      	movs	r1, #0
 80007ce:	4628      	mov	r0, r5
 80007d0:	f7ff ffd0 	bl	8000774 <_ZNKSt8functionIFvbNSt7__cxx1112basic_stringIcSt11char_traitsIcESaIcEEEEEclEbS5_>
 80007d4:	4668      	mov	r0, sp
 80007d6:	f003 f8df 	bl	8003998 <_ZNSt7__cxx1112basic_stringIcSt11char_traitsIcESaIcEE10_M_disposeEv>
 80007da:	6a23      	ldr	r3, [r4, #32]
 80007dc:	2b03      	cmp	r3, #3
 80007de:	d11f      	bne.n	8000820 <_ZN6State14TickEv+0x68>
 80007e0:	69e5      	ldr	r5, [r4, #28]
 80007e2:	4668      	mov	r0, sp
 80007e4:	4911      	ldr	r1, [pc, #68]	@ (800082c <_ZN6State14TickEv+0x74>)
 80007e6:	3524      	adds	r5, #36	@ 0x24
 80007e8:	f7ff fdf4 	bl	80003d4 <_ZNSt7__cxx1112basic_stringIcSt11char_traitsIcESaIcEEC2EPKcRKS3_.isra.0>
 80007ec:	466a      	mov	r2, sp
 80007ee:	2100      	movs	r1, #0
 80007f0:	4628      	mov	r0, r5
 80007f2:	f7ff ffbf 	bl	8000774 <_ZNKSt8functionIFvbNSt7__cxx1112basic_stringIcSt11char_traitsIcESaIcEEEEEclEbS5_>
 80007f6:	4668      	mov	r0, sp
 80007f8:	f003 f8ce 	bl	8003998 <_ZNSt7__cxx1112basic_stringIcSt11char_traitsIcESaIcEE10_M_disposeEv>
 80007fc:	4668      	mov	r0, sp
 80007fe:	490c      	ldr	r1, [pc, #48]	@ (8000830 <_ZN6State14TickEv+0x78>)
 8000800:	69e4      	ldr	r4, [r4, #28]
 8000802:	f7ff fde7 	bl	80003d4 <_ZNSt7__cxx1112basic_stringIcSt11char_traitsIcESaIcEEC2EPKcRKS3_.isra.0>
 8000806:	2301      	movs	r3, #1
 8000808:	f104 0038 	add.w	r0, r4, #56	@ 0x38
 800080c:	4669      	mov	r1, sp
 800080e:	f884 3034 	strb.w	r3, [r4, #52]	@ 0x34
 8000812:	f003 f91c 	bl	8003a4e <_ZNSt7__cxx1112basic_stringIcSt11char_traitsIcESaIcEE9_M_assignERKS4_>
 8000816:	4668      	mov	r0, sp
 8000818:	f003 f8be 	bl	8003998 <_ZNSt7__cxx1112basic_stringIcSt11char_traitsIcESaIcEE10_M_disposeEv>
 800081c:	b007      	add	sp, #28
 800081e:	bd30      	pop	{r4, r5, pc}
 8000820:	3301      	adds	r3, #1
 8000822:	6223      	str	r3, [r4, #32]
 8000824:	e7fa      	b.n	800081c <_ZN6State14TickEv+0x64>
 8000826:	bf00      	nop
 8000828:	08004123 	.word	0x08004123
 800082c:	08004129 	.word	0x08004129
 8000830:	0800412e 	.word	0x0800412e

08000834 <_ZN6State17OnEnterEv>:
 8000834:	b510      	push	{r4, lr}
 8000836:	69c4      	ldr	r4, [r0, #28]
 8000838:	b086      	sub	sp, #24
 800083a:	4668      	mov	r0, sp
 800083c:	4906      	ldr	r1, [pc, #24]	@ (8000858 <_ZN6State17OnEnterEv+0x24>)
 800083e:	3424      	adds	r4, #36	@ 0x24
 8000840:	f7ff fdc8 	bl	80003d4 <_ZNSt7__cxx1112basic_stringIcSt11char_traitsIcESaIcEEC2EPKcRKS3_.isra.0>
 8000844:	466a      	mov	r2, sp
 8000846:	2100      	movs	r1, #0
 8000848:	4620      	mov	r0, r4
 800084a:	f7ff ff93 	bl	8000774 <_ZNKSt8functionIFvbNSt7__cxx1112basic_stringIcSt11char_traitsIcESaIcEEEEEclEbS5_>
 800084e:	4668      	mov	r0, sp
 8000850:	f003 f8a2 	bl	8003998 <_ZNSt7__cxx1112basic_stringIcSt11char_traitsIcESaIcEE10_M_disposeEv>
 8000854:	b006      	add	sp, #24
 8000856:	bd10      	pop	{r4, pc}
 8000858:	08004135 	.word	0x08004135

0800085c <_ZN6State26OnExitEv>:
 800085c:	b510      	push	{r4, lr}
 800085e:	69c4      	ldr	r4, [r0, #28]
 8000860:	b086      	sub	sp, #24
 8000862:	4668      	mov	r0, sp
 8000864:	4906      	ldr	r1, [pc, #24]	@ (8000880 <_ZN6State26OnExitEv+0x24>)
 8000866:	3424      	adds	r4, #36	@ 0x24
 8000868:	f7ff fdb4 	bl	80003d4 <_ZNSt7__cxx1112basic_stringIcSt11char_traitsIcESaIcEEC2EPKcRKS3_.isra.0>
 800086c:	466a      	mov	r2, sp
 800086e:	2100      	movs	r1, #0
 8000870:	4620      	mov	r0, r4
 8000872:	f7ff ff7f 	bl	8000774 <_ZNKSt8functionIFvbNSt7__cxx1112basic_stringIcSt11char_traitsIcESaIcEEEEEclEbS5_>
 8000876:	4668      	mov	r0, sp
 8000878:	f003 f88e 	bl	8003998 <_ZNSt7__cxx1112basic_stringIcSt11char_traitsIcESaIcEE10_M_disposeEv>
 800087c:	b006      	add	sp, #24
 800087e:	bd10      	pop	{r4, pc}
 8000880:	08004144 	.word	0x08004144

08000884 <_ZN6State24TickEv>:
 8000884:	b530      	push	{r4, r5, lr}
 8000886:	4604      	mov	r4, r0
 8000888:	69c5      	ldr	r5, [r0, #28]
 800088a:	b087      	sub	sp, #28
 800088c:	4668      	mov	r0, sp
 800088e:	491a      	ldr	r1, [pc, #104]	@ (80008f8 <_ZN6State24TickEv+0x74>)
 8000890:	3524      	adds	r5, #36	@ 0x24
 8000892:	f7ff fd9f 	bl	80003d4 <_ZNSt7__cxx1112basic_stringIcSt11char_traitsIcESaIcEEC2EPKcRKS3_.isra.0>
 8000896:	466a      	mov	r2, sp
 8000898:	2100      	movs	r1, #0
 800089a:	4628      	mov	r0, r5
 800089c:	f7ff ff6a 	bl	8000774 <_ZNKSt8functionIFvbNSt7__cxx1112basic_stringIcSt11char_traitsIcESaIcEEEEEclEbS5_>
 80008a0:	4668      	mov	r0, sp
 80008a2:	f003 f879 	bl	8003998 <_ZNSt7__cxx1112basic_stringIcSt11char_traitsIcESaIcEE10_M_disposeEv>
 80008a6:	6a23      	ldr	r3, [r4, #32]
 80008a8:	2b06      	cmp	r3, #6
 80008aa:	d122      	bne.n	80008f2 <_ZN6State24TickEv+0x6e>
 80008ac:	69e5      	ldr	r5, [r4, #28]
 80008ae:	4668      	mov	r0, sp
 80008b0:	4912      	ldr	r1, [pc, #72]	@ (80008fc <_ZN6State24TickEv+0x78>)
 80008b2:	3524      	adds	r5, #36	@ 0x24
 80008b4:	f7ff fd8e 	bl	80003d4 <_ZNSt7__cxx1112basic_stringIcSt11char_traitsIcESaIcEEC2EPKcRKS3_.isra.0>
 80008b8:	466a      	mov	r2, sp
 80008ba:	2100      	movs	r1, #0
 80008bc:	4628      	mov	r0, r5
 80008be:	f7ff ff59 	bl	8000774 <_ZNKSt8functionIFvbNSt7__cxx1112basic_stringIcSt11char_traitsIcESaIcEEEEEclEbS5_>
 80008c2:	4668      	mov	r0, sp
 80008c4:	f003 f868 	bl	8003998 <_ZNSt7__cxx1112basic_stringIcSt11char_traitsIcESaIcEE10_M_disposeEv>
 80008c8:	2200      	movs	r2, #0
 80008ca:	4b0d      	ldr	r3, [pc, #52]	@ (8000900 <_ZN6State24TickEv+0x7c>)
 80008cc:	4668      	mov	r0, sp
 80008ce:	490d      	ldr	r1, [pc, #52]	@ (8000904 <_ZN6State24TickEv+0x80>)
 80008d0:	69e4      	ldr	r4, [r4, #28]
 80008d2:	701a      	strb	r2, [r3, #0]
 80008d4:	f7ff fd7e 	bl	80003d4 <_ZNSt7__cxx1112basic_stringIcSt11char_traitsIcESaIcEEC2EPKcRKS3_.isra.0>
 80008d8:	2301      	movs	r3, #1
 80008da:	f104 0038 	add.w	r0, r4, #56	@ 0x38
 80008de:	4669      	mov	r1, sp
 80008e0:	f884 3034 	strb.w	r3, [r4, #52]	@ 0x34
 80008e4:	f003 f8b3 	bl	8003a4e <_ZNSt7__cxx1112basic_stringIcSt11char_traitsIcESaIcEE9_M_assignERKS4_>
 80008e8:	4668      	mov	r0, sp
 80008ea:	f003 f855 	bl	8003998 <_ZNSt7__cxx1112basic_stringIcSt11char_traitsIcESaIcEE10_M_disposeEv>
 80008ee:	b007      	add	sp, #28
 80008f0:	bd30      	pop	{r4, r5, pc}
 80008f2:	3301      	adds	r3, #1
 80008f4:	6223      	str	r3, [r4, #32]
 80008f6:	e7fa      	b.n	80008ee <_ZN6State24TickEv+0x6a>
 80008f8:	08004152 	.word	0x08004152
 80008fc:	08004158 	.word	0x08004158
 8000900:	20000000 	.word	0x20000000
 8000904:	0800415d 	.word	0x0800415d

08000908 <_ZN6State27OnEnterEv>:
 8000908:	b510      	push	{r4, lr}
 800090a:	69c4      	ldr	r4, [r0, #28]
 800090c:	b086      	sub	sp, #24
 800090e:	4668      	mov	r0, sp
 8000910:	4906      	ldr	r1, [pc, #24]	@ (800092c <_ZN6State27OnEnterEv+0x24>)
 8000912:	3424      	adds	r4, #36	@ 0x24
 8000914:	f7ff fd5e 	bl	80003d4 <_ZNSt7__cxx1112basic_stringIcSt11char_traitsIcESaIcEEC2EPKcRKS3_.isra.0>
 8000918:	466a      	mov	r2, sp
 800091a:	2100      	movs	r1, #0
 800091c:	4620      	mov	r0, r4
 800091e:	f7ff ff29 	bl	8000774 <_ZNKSt8functionIFvbNSt7__cxx1112basic_stringIcSt11char_traitsIcESaIcEEEEEclEbS5_>
 8000922:	4668      	mov	r0, sp
 8000924:	f003 f838 	bl	8003998 <_ZNSt7__cxx1112basic_stringIcSt11char_traitsIcESaIcEE10_M_disposeEv>
 8000928:	b006      	add	sp, #24
 800092a:	bd10      	pop	{r4, pc}
 800092c:	08004164 	.word	0x08004164

08000930 <_ZN12StateMachine4TickEv>:
 8000930:	e92d 41f0 	stmdb	sp!, {r4, r5, r6, r7, r8, lr}
 8000934:	68c3      	ldr	r3, [r0, #12]
 8000936:	4604      	mov	r4, r0
 8000938:	b08c      	sub	sp, #48	@ 0x30
 800093a:	b97b      	cbnz	r3, 800095c <_ZN12StateMachine4TickEv+0x2c>
 800093c:	495e      	ldr	r1, [pc, #376]	@ (8000ab8 <_ZN12StateMachine4TickEv+0x188>)
 800093e:	a806      	add	r0, sp, #24
 8000940:	f7ff fd48 	bl	80003d4 <_ZNSt7__cxx1112basic_stringIcSt11char_traitsIcESaIcEEC2EPKcRKS3_.isra.0>
 8000944:	2101      	movs	r1, #1
 8000946:	aa06      	add	r2, sp, #24
 8000948:	f104 0024 	add.w	r0, r4, #36	@ 0x24
 800094c:	f7ff ff12 	bl	8000774 <_ZNKSt8functionIFvbNSt7__cxx1112basic_stringIcSt11char_traitsIcESaIcEEEEEclEbS5_>
 8000950:	a806      	add	r0, sp, #24
 8000952:	f003 f821 	bl	8003998 <_ZNSt7__cxx1112basic_stringIcSt11char_traitsIcESaIcEE10_M_disposeEv>
 8000956:	b00c      	add	sp, #48	@ 0x30
 8000958:	e8bd 81f0 	ldmia.w	sp!, {r4, r5, r6, r7, r8, pc}
 800095c:	f100 050c 	add.w	r5, r0, #12
 8000960:	4629      	mov	r1, r5
 8000962:	a806      	add	r0, sp, #24
 8000964:	f7ff fd15 	bl	8000392 <_ZNSt7__cxx1112basic_stringIcSt11char_traitsIcESaIcEEC2ERKS4_.isra.0>
 8000968:	4620      	mov	r0, r4
 800096a:	a906      	add	r1, sp, #24
 800096c:	f7ff fe61 	bl	8000632 <_Z10CheckStateRNSt7__cxx114listIP5StateSaIS2_EEENS_12basic_stringIcSt11char_traitsIcESaIcEEE>
 8000970:	4606      	mov	r6, r0
 8000972:	a806      	add	r0, sp, #24
 8000974:	f003 f810 	bl	8003998 <_ZNSt7__cxx1112basic_stringIcSt11char_traitsIcESaIcEE10_M_disposeEv>
 8000978:	b92e      	cbnz	r6, 8000986 <_ZN12StateMachine4TickEv+0x56>
 800097a:	462a      	mov	r2, r5
 800097c:	494f      	ldr	r1, [pc, #316]	@ (8000abc <_ZN12StateMachine4TickEv+0x18c>)
 800097e:	a806      	add	r0, sp, #24
 8000980:	f7ff fe7a 	bl	8000678 <_ZStplIcSt11char_traitsIcESaIcEENSt7__cxx1112basic_stringIT_T0_T1_EEPKS5_RKS8_>
 8000984:	e7de      	b.n	8000944 <_ZN12StateMachine4TickEv+0x14>
 8000986:	4629      	mov	r1, r5
 8000988:	a806      	add	r0, sp, #24
 800098a:	f7ff fd02 	bl	8000392 <_ZNSt7__cxx1112basic_stringIcSt11char_traitsIcESaIcEEC2ERKS4_.isra.0>
 800098e:	a906      	add	r1, sp, #24
 8000990:	4620      	mov	r0, r4
 8000992:	f7ff fe5f 	bl	8000654 <_Z9FindStateRNSt7__cxx114listIP5StateSaIS2_EEENS_12basic_stringIcSt11char_traitsIcESaIcEEE>
 8000996:	6803      	ldr	r3, [r0, #0]
 8000998:	685b      	ldr	r3, [r3, #4]
 800099a:	4798      	blx	r3
 800099c:	a806      	add	r0, sp, #24
 800099e:	f002 fffb 	bl	8003998 <_ZNSt7__cxx1112basic_stringIcSt11char_traitsIcESaIcEE10_M_disposeEv>
 80009a2:	f894 3034 	ldrb.w	r3, [r4, #52]	@ 0x34
 80009a6:	2b00      	cmp	r3, #0
 80009a8:	d0d5      	beq.n	8000956 <_ZN12StateMachine4TickEv+0x26>
 80009aa:	f104 0738 	add.w	r7, r4, #56	@ 0x38
 80009ae:	4639      	mov	r1, r7
 80009b0:	a806      	add	r0, sp, #24
 80009b2:	f7ff fcee 	bl	8000392 <_ZNSt7__cxx1112basic_stringIcSt11char_traitsIcESaIcEEC2ERKS4_.isra.0>
 80009b6:	a906      	add	r1, sp, #24
 80009b8:	4620      	mov	r0, r4
 80009ba:	f7ff fe3a 	bl	8000632 <_Z10CheckStateRNSt7__cxx114listIP5StateSaIS2_EEENS_12basic_stringIcSt11char_traitsIcESaIcEEE>
 80009be:	4680      	mov	r8, r0
 80009c0:	a806      	add	r0, sp, #24
 80009c2:	f002 ffe9 	bl	8003998 <_ZNSt7__cxx1112basic_stringIcSt11char_traitsIcESaIcEE10_M_disposeEv>
 80009c6:	f104 0624 	add.w	r6, r4, #36	@ 0x24
 80009ca:	f1b8 0f00 	cmp.w	r8, #0
 80009ce:	d107      	bne.n	80009e0 <_ZN12StateMachine4TickEv+0xb0>
 80009d0:	493b      	ldr	r1, [pc, #236]	@ (8000ac0 <_ZN12StateMachine4TickEv+0x190>)
 80009d2:	a806      	add	r0, sp, #24
 80009d4:	f7ff fcfe 	bl	80003d4 <_ZNSt7__cxx1112basic_stringIcSt11char_traitsIcESaIcEEC2EPKcRKS3_.isra.0>
 80009d8:	2101      	movs	r1, #1
 80009da:	4630      	mov	r0, r6
 80009dc:	aa06      	add	r2, sp, #24
 80009de:	e7b5      	b.n	800094c <_ZN12StateMachine4TickEv+0x1c>
 80009e0:	4629      	mov	r1, r5
 80009e2:	a806      	add	r0, sp, #24
 80009e4:	f7ff fcd5 	bl	8000392 <_ZNSt7__cxx1112basic_stringIcSt11char_traitsIcESaIcEEC2ERKS4_.isra.0>
 80009e8:	a906      	add	r1, sp, #24
 80009ea:	4620      	mov	r0, r4
 80009ec:	f7ff fe32 	bl	8000654 <_Z9FindStateRNSt7__cxx114listIP5StateSaIS2_EEENS_12basic_stringIcSt11char_traitsIcESaIcEEE>
 80009f0:	6803      	ldr	r3, [r0, #0]
 80009f2:	689b      	ldr	r3, [r3, #8]
 80009f4:	4798      	blx	r3
 80009f6:	a806      	add	r0, sp, #24
 80009f8:	f002 ffce 	bl	8003998 <_ZNSt7__cxx1112basic_stringIcSt11char_traitsIcESaIcEE10_M_disposeEv>
 80009fc:	4629      	mov	r1, r5
 80009fe:	4668      	mov	r0, sp
 8000a00:	f7ff fcc7 	bl	8000392 <_ZNSt7__cxx1112basic_stringIcSt11char_traitsIcESaIcEEC2ERKS4_.isra.0>
 8000a04:	4a2f      	ldr	r2, [pc, #188]	@ (8000ac4 <_ZN12StateMachine4TickEv+0x194>)
 8000a06:	2100      	movs	r1, #0
 8000a08:	4668      	mov	r0, sp
 8000a0a:	f003 f93d 	bl	8003c88 <_ZNSt7__cxx1112basic_stringIcSt11char_traitsIcESaIcEE6insertEjPKc>
 8000a0e:	4601      	mov	r1, r0
 8000a10:	a806      	add	r0, sp, #24
 8000a12:	f7ff fd1d 	bl	8000450 <_ZNSt7__cxx1112basic_stringIcSt11char_traitsIcESaIcEEC2EOS4_.isra.0>
 8000a16:	aa06      	add	r2, sp, #24
 8000a18:	2100      	movs	r1, #0
 8000a1a:	4630      	mov	r0, r6
 8000a1c:	f7ff feaa 	bl	8000774 <_ZNKSt8functionIFvbNSt7__cxx1112basic_stringIcSt11char_traitsIcESaIcEEEEEclEbS5_>
 8000a20:	a806      	add	r0, sp, #24
 8000a22:	f002 ffb9 	bl	8003998 <_ZNSt7__cxx1112basic_stringIcSt11char_traitsIcESaIcEE10_M_disposeEv>
 8000a26:	4668      	mov	r0, sp
 8000a28:	f002 ffb6 	bl	8003998 <_ZNSt7__cxx1112basic_stringIcSt11char_traitsIcESaIcEE10_M_disposeEv>
 8000a2c:	4639      	mov	r1, r7
 8000a2e:	4628      	mov	r0, r5
 8000a30:	f003 f80d 	bl	8003a4e <_ZNSt7__cxx1112basic_stringIcSt11char_traitsIcESaIcEE9_M_assignERKS4_>
 8000a34:	4629      	mov	r1, r5
 8000a36:	a806      	add	r0, sp, #24
 8000a38:	f7ff fcab 	bl	8000392 <_ZNSt7__cxx1112basic_stringIcSt11char_traitsIcESaIcEEC2ERKS4_.isra.0>
 8000a3c:	a906      	add	r1, sp, #24
 8000a3e:	4620      	mov	r0, r4
 8000a40:	f7ff fe08 	bl	8000654 <_Z9FindStateRNSt7__cxx114listIP5StateSaIS2_EEENS_12basic_stringIcSt11char_traitsIcESaIcEEE>
 8000a44:	6803      	ldr	r3, [r0, #0]
 8000a46:	681b      	ldr	r3, [r3, #0]
 8000a48:	4798      	blx	r3
 8000a4a:	a806      	add	r0, sp, #24
 8000a4c:	f002 ffa4 	bl	8003998 <_ZNSt7__cxx1112basic_stringIcSt11char_traitsIcESaIcEE10_M_disposeEv>
 8000a50:	4629      	mov	r1, r5
 8000a52:	4668      	mov	r0, sp
 8000a54:	f7ff fc9d 	bl	8000392 <_ZNSt7__cxx1112basic_stringIcSt11char_traitsIcESaIcEEC2ERKS4_.isra.0>
 8000a58:	4a1b      	ldr	r2, [pc, #108]	@ (8000ac8 <_ZN12StateMachine4TickEv+0x198>)
 8000a5a:	2100      	movs	r1, #0
 8000a5c:	4668      	mov	r0, sp
 8000a5e:	f003 f913 	bl	8003c88 <_ZNSt7__cxx1112basic_stringIcSt11char_traitsIcESaIcEE6insertEjPKc>
 8000a62:	4601      	mov	r1, r0
 8000a64:	a806      	add	r0, sp, #24
 8000a66:	f7ff fcf3 	bl	8000450 <_ZNSt7__cxx1112basic_stringIcSt11char_traitsIcESaIcEEC2EOS4_.isra.0>
 8000a6a:	aa06      	add	r2, sp, #24
 8000a6c:	2100      	movs	r1, #0
 8000a6e:	4630      	mov	r0, r6
 8000a70:	f7ff fe80 	bl	8000774 <_ZNKSt8functionIFvbNSt7__cxx1112basic_stringIcSt11char_traitsIcESaIcEEEEEclEbS5_>
 8000a74:	a806      	add	r0, sp, #24
 8000a76:	f002 ff8f 	bl	8003998 <_ZNSt7__cxx1112basic_stringIcSt11char_traitsIcESaIcEE10_M_disposeEv>
 8000a7a:	4668      	mov	r0, sp
 8000a7c:	f002 ff8c 	bl	8003998 <_ZNSt7__cxx1112basic_stringIcSt11char_traitsIcESaIcEE10_M_disposeEv>
 8000a80:	4639      	mov	r1, r7
 8000a82:	4668      	mov	r0, sp
 8000a84:	f7ff fc85 	bl	8000392 <_ZNSt7__cxx1112basic_stringIcSt11char_traitsIcESaIcEEC2ERKS4_.isra.0>
 8000a88:	4a10      	ldr	r2, [pc, #64]	@ (8000acc <_ZN12StateMachine4TickEv+0x19c>)
 8000a8a:	2100      	movs	r1, #0
 8000a8c:	4668      	mov	r0, sp
 8000a8e:	f003 f8fb 	bl	8003c88 <_ZNSt7__cxx1112basic_stringIcSt11char_traitsIcESaIcEE6insertEjPKc>
 8000a92:	4601      	mov	r1, r0
 8000a94:	a806      	add	r0, sp, #24
 8000a96:	f7ff fcdb 	bl	8000450 <_ZNSt7__cxx1112basic_stringIcSt11char_traitsIcESaIcEEC2EOS4_.isra.0>
 8000a9a:	2100      	movs	r1, #0
 8000a9c:	aa06      	add	r2, sp, #24
 8000a9e:	4630      	mov	r0, r6
 8000aa0:	f7ff fe68 	bl	8000774 <_ZNKSt8functionIFvbNSt7__cxx1112basic_stringIcSt11char_traitsIcESaIcEEEEEclEbS5_>
 8000aa4:	a806      	add	r0, sp, #24
 8000aa6:	f002 ff77 	bl	8003998 <_ZNSt7__cxx1112basic_stringIcSt11char_traitsIcESaIcEE10_M_disposeEv>
 8000aaa:	4668      	mov	r0, sp
 8000aac:	f002 ff74 	bl	8003998 <_ZNSt7__cxx1112basic_stringIcSt11char_traitsIcESaIcEE10_M_disposeEv>
 8000ab0:	2300      	movs	r3, #0
 8000ab2:	f884 3034 	strb.w	r3, [r4, #52]	@ 0x34
 8000ab6:	e74e      	b.n	8000956 <_ZN12StateMachine4TickEv+0x26>
 8000ab8:	08004173 	.word	0x08004173
 8000abc:	0800417e 	.word	0x0800417e
 8000ac0:	0800418e 	.word	0x0800418e
 8000ac4:	080041a4 	.word	0x080041a4
 8000ac8:	080041b3 	.word	0x080041b3
 8000acc:	080041c3 	.word	0x080041c3

08000ad0 <_ZN12StateMachine8AddStateEP5State>:
 8000ad0:	b570      	push	{r4, r5, r6, lr}
 8000ad2:	4604      	mov	r4, r0
 8000ad4:	b086      	sub	sp, #24
 8000ad6:	6806      	ldr	r6, [r0, #0]
 8000ad8:	200c      	movs	r0, #12
 8000ada:	460d      	mov	r5, r1
 8000adc:	f002 ff04 	bl	80038e8 <_Znwj>
 8000ae0:	4631      	mov	r1, r6
 8000ae2:	6085      	str	r5, [r0, #8]
 8000ae4:	f002 ff11 	bl	800390a <_ZNSt8__detail15_List_node_base7_M_hookEPS0_>
 8000ae8:	68a3      	ldr	r3, [r4, #8]
 8000aea:	1d2e      	adds	r6, r5, #4
 8000aec:	3301      	adds	r3, #1
 8000aee:	60a3      	str	r3, [r4, #8]
 8000af0:	4632      	mov	r2, r6
 8000af2:	4668      	mov	r0, sp
 8000af4:	490d      	ldr	r1, [pc, #52]	@ (8000b2c <_ZN12StateMachine8AddStateEP5State+0x5c>)
 8000af6:	f7ff fdbf 	bl	8000678 <_ZStplIcSt11char_traitsIcESaIcEENSt7__cxx1112basic_stringIT_T0_T1_EEPKS5_RKS8_>
 8000afa:	466a      	mov	r2, sp
 8000afc:	2100      	movs	r1, #0
 8000afe:	f104 0024 	add.w	r0, r4, #36	@ 0x24
 8000b02:	f7ff fe37 	bl	8000774 <_ZNKSt8functionIFvbNSt7__cxx1112basic_stringIcSt11char_traitsIcESaIcEEEEEclEbS5_>
 8000b06:	4668      	mov	r0, sp
 8000b08:	f002 ff46 	bl	8003998 <_ZNSt7__cxx1112basic_stringIcSt11char_traitsIcESaIcEE10_M_disposeEv>
 8000b0c:	6923      	ldr	r3, [r4, #16]
 8000b0e:	b95b      	cbnz	r3, 8000b28 <_ZN12StateMachine8AddStateEP5State+0x58>
 8000b10:	f104 000c 	add.w	r0, r4, #12
 8000b14:	4631      	mov	r1, r6
 8000b16:	f002 ff9a 	bl	8003a4e <_ZNSt7__cxx1112basic_stringIcSt11char_traitsIcESaIcEE9_M_assignERKS4_>
 8000b1a:	4628      	mov	r0, r5
 8000b1c:	682b      	ldr	r3, [r5, #0]
 8000b1e:	681b      	ldr	r3, [r3, #0]
 8000b20:	b006      	add	sp, #24
 8000b22:	e8bd 4070 	ldmia.w	sp!, {r4, r5, r6, lr}
 8000b26:	4718      	bx	r3
 8000b28:	b006      	add	sp, #24
 8000b2a:	bd70      	pop	{r4, r5, r6, pc}
 8000b2c:	080041cf 	.word	0x080041cf

08000b30 <main>:
 8000b30:	2501      	movs	r5, #1
 8000b32:	b580      	push	{r7, lr}
 8000b34:	b0b0      	sub	sp, #192	@ 0xc0
 8000b36:	f000 faa9 	bl	800108c <HAL_Init>
 8000b3a:	f7ff fd27 	bl	800058c <_Z18SystemClock_Configv>
 8000b3e:	f7ff fb65 	bl	800020c <MX_GPIO_Init>
 8000b42:	f000 f9f9 	bl	8000f38 <MX_USART1_UART_Init>
 8000b46:	f7ff fbb7 	bl	80002b8 <MX_I2C1_Init>
 8000b4a:	f7ff fb07 	bl	800015c <MX_ADC1_Init>
 8000b4e:	f000 f9a3 	bl	8000e98 <MX_TIM2_Init>
 8000b52:	2200      	movs	r2, #0
 8000b54:	2130      	movs	r1, #48	@ 0x30
 8000b56:	486c      	ldr	r0, [pc, #432]	@ (8000d08 <main+0x1d8>)
 8000b58:	4e6b      	ldr	r6, [pc, #428]	@ (8000d08 <main+0x1d8>)
 8000b5a:	f7ff fcc8 	bl	80004ee <_ZN9LCDDevice4SendEhh>
 8000b5e:	2200      	movs	r2, #0
 8000b60:	2102      	movs	r1, #2
 8000b62:	4869      	ldr	r0, [pc, #420]	@ (8000d08 <main+0x1d8>)
 8000b64:	f7ff fcc3 	bl	80004ee <_ZN9LCDDevice4SendEhh>
 8000b68:	2200      	movs	r2, #0
 8000b6a:	210c      	movs	r1, #12
 8000b6c:	4866      	ldr	r0, [pc, #408]	@ (8000d08 <main+0x1d8>)
 8000b6e:	f7ff fcbe 	bl	80004ee <_ZN9LCDDevice4SendEhh>
 8000b72:	4629      	mov	r1, r5
 8000b74:	4630      	mov	r0, r6
 8000b76:	2200      	movs	r2, #0
 8000b78:	ac1c      	add	r4, sp, #112	@ 0x70
 8000b7a:	8135      	strh	r5, [r6, #8]
 8000b7c:	f7ff fcb7 	bl	80004ee <_ZN9LCDDevice4SendEhh>
 8000b80:	2200      	movs	r2, #0
 8000b82:	4630      	mov	r0, r6
 8000b84:	2180      	movs	r1, #128	@ 0x80
 8000b86:	8135      	strh	r5, [r6, #8]
 8000b88:	f7ff fcb1 	bl	80004ee <_ZN9LCDDevice4SendEhh>
 8000b8c:	4620      	mov	r0, r4
 8000b8e:	495f      	ldr	r1, [pc, #380]	@ (8000d0c <main+0x1dc>)
 8000b90:	f7ff fc20 	bl	80003d4 <_ZNSt7__cxx1112basic_stringIcSt11char_traitsIcESaIcEEC2EPKcRKS3_.isra.0>
 8000b94:	4621      	mov	r1, r4
 8000b96:	4630      	mov	r0, r6
 8000b98:	f7ff fce9 	bl	800056e <_ZN9LCDDevice5WriteENSt7__cxx1112basic_stringIcSt11char_traitsIcESaIcEEE>
 8000b9c:	4620      	mov	r0, r4
 8000b9e:	f002 fefb 	bl	8003998 <_ZNSt7__cxx1112basic_stringIcSt11char_traitsIcESaIcEE10_M_disposeEv>
 8000ba2:	4630      	mov	r0, r6
 8000ba4:	2102      	movs	r1, #2
 8000ba6:	f7ff fc82 	bl	80004ae <_ZN9LCDDevice7SetLineEh>
 8000baa:	4620      	mov	r0, r4
 8000bac:	4958      	ldr	r1, [pc, #352]	@ (8000d10 <main+0x1e0>)
 8000bae:	f7ff fc11 	bl	80003d4 <_ZNSt7__cxx1112basic_stringIcSt11char_traitsIcESaIcEEC2EPKcRKS3_.isra.0>
 8000bb2:	4621      	mov	r1, r4
 8000bb4:	4630      	mov	r0, r6
 8000bb6:	f7ff fcda 	bl	800056e <_ZN9LCDDevice5WriteENSt7__cxx1112basic_stringIcSt11char_traitsIcESaIcEEE>
 8000bba:	4620      	mov	r0, r4
 8000bbc:	f002 feec 	bl	8003998 <_ZNSt7__cxx1112basic_stringIcSt11char_traitsIcESaIcEE10_M_disposeEv>
 8000bc0:	4630      	mov	r0, r6
 8000bc2:	2103      	movs	r1, #3
 8000bc4:	f7ff fc73 	bl	80004ae <_ZN9LCDDevice7SetLineEh>
 8000bc8:	4620      	mov	r0, r4
 8000bca:	4952      	ldr	r1, [pc, #328]	@ (8000d14 <main+0x1e4>)
 8000bcc:	f7ff fc02 	bl	80003d4 <_ZNSt7__cxx1112basic_stringIcSt11char_traitsIcESaIcEEC2EPKcRKS3_.isra.0>
 8000bd0:	4621      	mov	r1, r4
 8000bd2:	4630      	mov	r0, r6
 8000bd4:	f7ff fccb 	bl	800056e <_ZN9LCDDevice5WriteENSt7__cxx1112basic_stringIcSt11char_traitsIcESaIcEEE>
 8000bd8:	4620      	mov	r0, r4
 8000bda:	f002 fedd 	bl	8003998 <_ZNSt7__cxx1112basic_stringIcSt11char_traitsIcESaIcEE10_M_disposeEv>
 8000bde:	4630      	mov	r0, r6
 8000be0:	2104      	movs	r1, #4
 8000be2:	f7ff fc64 	bl	80004ae <_ZN9LCDDevice7SetLineEh>
 8000be6:	4620      	mov	r0, r4
 8000be8:	494b      	ldr	r1, [pc, #300]	@ (8000d18 <main+0x1e8>)
 8000bea:	f7ff fbf3 	bl	80003d4 <_ZNSt7__cxx1112basic_stringIcSt11char_traitsIcESaIcEEC2EPKcRKS3_.isra.0>
 8000bee:	4621      	mov	r1, r4
 8000bf0:	4630      	mov	r0, r6
 8000bf2:	f7ff fcbc 	bl	800056e <_ZN9LCDDevice5WriteENSt7__cxx1112basic_stringIcSt11char_traitsIcESaIcEEE>
 8000bf6:	4620      	mov	r0, r4
 8000bf8:	f002 fece 	bl	8003998 <_ZNSt7__cxx1112basic_stringIcSt11char_traitsIcESaIcEE10_M_disposeEv>
 8000bfc:	f44f 707a 	mov.w	r0, #1000	@ 0x3e8
 8000c00:	f000 fa68 	bl	80010d4 <HAL_Delay>
 8000c04:	4629      	mov	r1, r5
 8000c06:	8135      	strh	r5, [r6, #8]
 8000c08:	2500      	movs	r5, #0
 8000c0a:	4630      	mov	r0, r6
 8000c0c:	2200      	movs	r2, #0
 8000c0e:	f7ff fc6e 	bl	80004ee <_ZN9LCDDevice4SendEhh>
 8000c12:	4b42      	ldr	r3, [pc, #264]	@ (8000d1c <main+0x1ec>)
 8000c14:	4f42      	ldr	r7, [pc, #264]	@ (8000d20 <main+0x1f0>)
 8000c16:	4e43      	ldr	r6, [pc, #268]	@ (8000d24 <main+0x1f4>)
 8000c18:	2202      	movs	r2, #2
 8000c1a:	9313      	str	r3, [sp, #76]	@ 0x4c
 8000c1c:	a913      	add	r1, sp, #76	@ 0x4c
 8000c1e:	ab21      	add	r3, sp, #132	@ 0x84
 8000c20:	a825      	add	r0, sp, #148	@ 0x94
 8000c22:	e9cd 351f 	strd	r3, r5, [sp, #124]	@ 0x7c
 8000c26:	e9cd 441c 	strd	r4, r4, [sp, #112]	@ 0x70
 8000c2a:	e9cd 5525 	strd	r5, r5, [sp, #148]	@ 0x94
 8000c2e:	e9cd 5527 	strd	r5, r5, [sp, #156]	@ 0x9c
 8000c32:	f88d 500c 	strb.w	r5, [sp, #12]
 8000c36:	9514      	str	r5, [sp, #80]	@ 0x50
 8000c38:	9716      	str	r7, [sp, #88]	@ 0x58
 8000c3a:	9615      	str	r6, [sp, #84]	@ 0x54
 8000c3c:	951e      	str	r5, [sp, #120]	@ 0x78
 8000c3e:	f88d 5084 	strb.w	r5, [sp, #132]	@ 0x84
 8000c42:	f7ff fb96 	bl	8000372 <_ZNSt17_Function_handlerIFvbNSt7__cxx1112basic_stringIcSt11char_traitsIcESaIcEEEEPS6_E10_M_managerERSt9_Any_dataRKS9_St18_Manager_operation>
 8000c46:	ab2c      	add	r3, sp, #176	@ 0xb0
 8000c48:	e9cd 352a 	strd	r3, r5, [sp, #168]	@ 0xa8
 8000c4c:	462a      	mov	r2, r5
 8000c4e:	462b      	mov	r3, r5
 8000c50:	4629      	mov	r1, r5
 8000c52:	9500      	str	r5, [sp, #0]
 8000c54:	a81f      	add	r0, sp, #124	@ 0x7c
 8000c56:	e9cd 6727 	strd	r6, r7, [sp, #156]	@ 0x9c
 8000c5a:	f88d 50a4 	strb.w	r5, [sp, #164]	@ 0xa4
 8000c5e:	f88d 50b0 	strb.w	r5, [sp, #176]	@ 0xb0
 8000c62:	f002 ffab 	bl	8003bbc <_ZNSt7__cxx1112basic_stringIcSt11char_traitsIcESaIcEE10_M_replaceEjjPKcj>
 8000c66:	9b15      	ldr	r3, [sp, #84]	@ 0x54
 8000c68:	f88d 50a4 	strb.w	r5, [sp, #164]	@ 0xa4
 8000c6c:	b11b      	cbz	r3, 8000c76 <main+0x146>
 8000c6e:	a913      	add	r1, sp, #76	@ 0x4c
 8000c70:	2203      	movs	r2, #3
 8000c72:	4608      	mov	r0, r1
 8000c74:	4798      	blx	r3
 8000c76:	2500      	movs	r5, #0
 8000c78:	492b      	ldr	r1, [pc, #172]	@ (8000d28 <main+0x1f8>)
 8000c7a:	4e2c      	ldr	r6, [pc, #176]	@ (8000d2c <main+0x1fc>)
 8000c7c:	a813      	add	r0, sp, #76	@ 0x4c
 8000c7e:	f7ff fba9 	bl	80003d4 <_ZNSt7__cxx1112basic_stringIcSt11char_traitsIcESaIcEEC2EPKcRKS3_.isra.0>
 8000c82:	ab0d      	add	r3, sp, #52	@ 0x34
 8000c84:	a913      	add	r1, sp, #76	@ 0x4c
 8000c86:	a80b      	add	r0, sp, #44	@ 0x2c
 8000c88:	930b      	str	r3, [sp, #44]	@ 0x2c
 8000c8a:	950c      	str	r5, [sp, #48]	@ 0x30
 8000c8c:	f88d 5034 	strb.w	r5, [sp, #52]	@ 0x34
 8000c90:	960a      	str	r6, [sp, #40]	@ 0x28
 8000c92:	9411      	str	r4, [sp, #68]	@ 0x44
 8000c94:	f002 fedb 	bl	8003a4e <_ZNSt7__cxx1112basic_stringIcSt11char_traitsIcESaIcEE9_M_assignERKS4_>
 8000c98:	4b25      	ldr	r3, [pc, #148]	@ (8000d30 <main+0x200>)
 8000c9a:	a813      	add	r0, sp, #76	@ 0x4c
 8000c9c:	930a      	str	r3, [sp, #40]	@ 0x28
 8000c9e:	9512      	str	r5, [sp, #72]	@ 0x48
 8000ca0:	f002 fe7a 	bl	8003998 <_ZNSt7__cxx1112basic_stringIcSt11char_traitsIcESaIcEE10_M_disposeEv>
 8000ca4:	4923      	ldr	r1, [pc, #140]	@ (8000d34 <main+0x204>)
 8000ca6:	a804      	add	r0, sp, #16
 8000ca8:	f7ff fb94 	bl	80003d4 <_ZNSt7__cxx1112basic_stringIcSt11char_traitsIcESaIcEEC2EPKcRKS3_.isra.0>
 8000cac:	ab16      	add	r3, sp, #88	@ 0x58
 8000cae:	a904      	add	r1, sp, #16
 8000cb0:	a814      	add	r0, sp, #80	@ 0x50
 8000cb2:	e9cd 3514 	strd	r3, r5, [sp, #80]	@ 0x50
 8000cb6:	f88d 5058 	strb.w	r5, [sp, #88]	@ 0x58
 8000cba:	9613      	str	r6, [sp, #76]	@ 0x4c
 8000cbc:	941a      	str	r4, [sp, #104]	@ 0x68
 8000cbe:	f002 fec6 	bl	8003a4e <_ZNSt7__cxx1112basic_stringIcSt11char_traitsIcESaIcEE9_M_assignERKS4_>
 8000cc2:	4b1d      	ldr	r3, [pc, #116]	@ (8000d38 <main+0x208>)
 8000cc4:	a804      	add	r0, sp, #16
 8000cc6:	9313      	str	r3, [sp, #76]	@ 0x4c
 8000cc8:	951b      	str	r5, [sp, #108]	@ 0x6c
 8000cca:	f002 fe65 	bl	8003998 <_ZNSt7__cxx1112basic_stringIcSt11char_traitsIcESaIcEE10_M_disposeEv>
 8000cce:	4620      	mov	r0, r4
 8000cd0:	a90a      	add	r1, sp, #40	@ 0x28
 8000cd2:	f7ff fefd 	bl	8000ad0 <_ZN12StateMachine8AddStateEP5State>
 8000cd6:	4620      	mov	r0, r4
 8000cd8:	a913      	add	r1, sp, #76	@ 0x4c
 8000cda:	f7ff fef9 	bl	8000ad0 <_ZN12StateMachine8AddStateEP5State>
 8000cde:	4d17      	ldr	r5, [pc, #92]	@ (8000d3c <main+0x20c>)
 8000ce0:	2201      	movs	r2, #1
 8000ce2:	4817      	ldr	r0, [pc, #92]	@ (8000d40 <main+0x210>)
 8000ce4:	a903      	add	r1, sp, #12
 8000ce6:	f002 fdee 	bl	80038c6 <HAL_UART_Receive_IT>
 8000cea:	f89d 300c 	ldrb.w	r3, [sp, #12]
 8000cee:	b113      	cbz	r3, 8000cf6 <main+0x1c6>
 8000cf0:	2300      	movs	r3, #0
 8000cf2:	f88d 300c 	strb.w	r3, [sp, #12]
 8000cf6:	782b      	ldrb	r3, [r5, #0]
 8000cf8:	b113      	cbz	r3, 8000d00 <main+0x1d0>
 8000cfa:	4620      	mov	r0, r4
 8000cfc:	f7ff fe18 	bl	8000930 <_ZN12StateMachine4TickEv>
 8000d00:	f000 f9e2 	bl	80010c8 <HAL_GetTick>
 8000d04:	e7ec      	b.n	8000ce0 <main+0x1b0>
 8000d06:	bf00      	nop
 8000d08:	20000100 	.word	0x20000100
 8000d0c:	080041e1 	.word	0x080041e1
 8000d10:	080041f3 	.word	0x080041f3
 8000d14:	08004202 	.word	0x08004202
 8000d18:	08004215 	.word	0x08004215
 8000d1c:	080006bd 	.word	0x080006bd
 8000d20:	0800048f 	.word	0x0800048f
 8000d24:	08000373 	.word	0x08000373
 8000d28:	08004220 	.word	0x08004220
 8000d2c:	080042b0 	.word	0x080042b0
 8000d30:	080042c4 	.word	0x080042c4
 8000d34:	0800412e 	.word	0x0800412e
 8000d38:	080042d8 	.word	0x080042d8
 8000d3c:	20000000 	.word	0x20000000
 8000d40:	20000158 	.word	0x20000158

08000d44 <_GLOBAL__sub_I_LCD>:
 8000d44:	224e      	movs	r2, #78	@ 0x4e
 8000d46:	4b03      	ldr	r3, [pc, #12]	@ (8000d54 <_GLOBAL__sub_I_LCD+0x10>)
 8000d48:	801a      	strh	r2, [r3, #0]
 8000d4a:	4a03      	ldr	r2, [pc, #12]	@ (8000d58 <_GLOBAL__sub_I_LCD+0x14>)
 8000d4c:	605a      	str	r2, [r3, #4]
 8000d4e:	2201      	movs	r2, #1
 8000d50:	811a      	strh	r2, [r3, #8]
 8000d52:	4770      	bx	lr
 8000d54:	20000100 	.word	0x20000100
 8000d58:	200000ac 	.word	0x200000ac

08000d5c <HAL_MspInit>:
 8000d5c:	4b0e      	ldr	r3, [pc, #56]	@ (8000d98 <HAL_MspInit+0x3c>)
 8000d5e:	b082      	sub	sp, #8
 8000d60:	699a      	ldr	r2, [r3, #24]
 8000d62:	f042 0201 	orr.w	r2, r2, #1
 8000d66:	619a      	str	r2, [r3, #24]
 8000d68:	699a      	ldr	r2, [r3, #24]
 8000d6a:	f002 0201 	and.w	r2, r2, #1
 8000d6e:	9200      	str	r2, [sp, #0]
 8000d70:	9a00      	ldr	r2, [sp, #0]
 8000d72:	69da      	ldr	r2, [r3, #28]
 8000d74:	f042 5280 	orr.w	r2, r2, #268435456	@ 0x10000000
 8000d78:	61da      	str	r2, [r3, #28]
 8000d7a:	69db      	ldr	r3, [r3, #28]
 8000d7c:	4a07      	ldr	r2, [pc, #28]	@ (8000d9c <HAL_MspInit+0x40>)
 8000d7e:	f003 5380 	and.w	r3, r3, #268435456	@ 0x10000000
 8000d82:	9301      	str	r3, [sp, #4]
 8000d84:	9b01      	ldr	r3, [sp, #4]
 8000d86:	6853      	ldr	r3, [r2, #4]
 8000d88:	f023 63e0 	bic.w	r3, r3, #117440512	@ 0x7000000
 8000d8c:	f043 7300 	orr.w	r3, r3, #33554432	@ 0x2000000
 8000d90:	6053      	str	r3, [r2, #4]
 8000d92:	b002      	add	sp, #8
 8000d94:	4770      	bx	lr
 8000d96:	bf00      	nop
 8000d98:	40021000 	.word	0x40021000
 8000d9c:	40010000 	.word	0x40010000

08000da0 <NMI_Handler>:
 8000da0:	e7fe      	b.n	8000da0 <NMI_Handler>

08000da2 <HardFault_Handler>:
 8000da2:	e7fe      	b.n	8000da2 <HardFault_Handler>

08000da4 <MemManage_Handler>:
 8000da4:	e7fe      	b.n	8000da4 <MemManage_Handler>

08000da6 <BusFault_Handler>:
 8000da6:	e7fe      	b.n	8000da6 <BusFault_Handler>

08000da8 <UsageFault_Handler>:
 8000da8:	e7fe      	b.n	8000da8 <UsageFault_Handler>

08000daa <SVC_Handler>:
 8000daa:	4770      	bx	lr

08000dac <DebugMon_Handler>:
 8000dac:	4770      	bx	lr

08000dae <PendSV_Handler>:
 8000dae:	4770      	bx	lr

08000db0 <SysTick_Handler>:
 8000db0:	f000 b97e 	b.w	80010b0 <HAL_IncTick>

08000db4 <I2C1_EV_IRQHandler>:
 8000db4:	4801      	ldr	r0, [pc, #4]	@ (8000dbc <I2C1_EV_IRQHandler+0x8>)
 8000db6:	f001 b8fd 	b.w	8001fb4 <HAL_I2C_EV_IRQHandler>
 8000dba:	bf00      	nop
 8000dbc:	200000ac 	.word	0x200000ac

08000dc0 <USART1_IRQHandler>:
 8000dc0:	4801      	ldr	r0, [pc, #4]	@ (8000dc8 <USART1_IRQHandler+0x8>)
 8000dc2:	f002 bc1d 	b.w	8003600 <HAL_UART_IRQHandler>
 8000dc6:	bf00      	nop
 8000dc8:	20000158 	.word	0x20000158

08000dcc <_getpid>:
 8000dcc:	2001      	movs	r0, #1
 8000dce:	4770      	bx	lr

08000dd0 <_kill>:
 8000dd0:	b508      	push	{r3, lr}
 8000dd2:	f003 f8e3 	bl	8003f9c <__errno>
 8000dd6:	2316      	movs	r3, #22
 8000dd8:	6003      	str	r3, [r0, #0]
 8000dda:	f04f 30ff 	mov.w	r0, #4294967295
 8000dde:	bd08      	pop	{r3, pc}

08000de0 <_exit>:
 8000de0:	b508      	push	{r3, lr}
 8000de2:	f003 f8db 	bl	8003f9c <__errno>
 8000de6:	2316      	movs	r3, #22
 8000de8:	6003      	str	r3, [r0, #0]
 8000dea:	e7fe      	b.n	8000dea <_exit+0xa>

08000dec <_sbrk>:
 8000dec:	4a0a      	ldr	r2, [pc, #40]	@ (8000e18 <_sbrk+0x2c>)
 8000dee:	4603      	mov	r3, r0
 8000df0:	6810      	ldr	r0, [r2, #0]
 8000df2:	b510      	push	{r4, lr}
 8000df4:	b908      	cbnz	r0, 8000dfa <_sbrk+0xe>
 8000df6:	4809      	ldr	r0, [pc, #36]	@ (8000e1c <_sbrk+0x30>)
 8000df8:	6010      	str	r0, [r2, #0]
 8000dfa:	4909      	ldr	r1, [pc, #36]	@ (8000e20 <_sbrk+0x34>)
 8000dfc:	4c09      	ldr	r4, [pc, #36]	@ (8000e24 <_sbrk+0x38>)
 8000dfe:	4403      	add	r3, r0
 8000e00:	1b09      	subs	r1, r1, r4
 8000e02:	428b      	cmp	r3, r1
 8000e04:	d906      	bls.n	8000e14 <_sbrk+0x28>
 8000e06:	f003 f8c9 	bl	8003f9c <__errno>
 8000e0a:	230c      	movs	r3, #12
 8000e0c:	6003      	str	r3, [r0, #0]
 8000e0e:	f04f 30ff 	mov.w	r0, #4294967295
 8000e12:	bd10      	pop	{r4, pc}
 8000e14:	6013      	str	r3, [r2, #0]
 8000e16:	e7fc      	b.n	8000e12 <_sbrk+0x26>
 8000e18:	2000010c 	.word	0x2000010c
 8000e1c:	200002f0 	.word	0x200002f0
 8000e20:	20005000 	.word	0x20005000
 8000e24:	00000400 	.word	0x00000400

08000e28 <SystemInit>:
 8000e28:	4770      	bx	lr

08000e2a <HAL_TIM_Base_MspInit>:
 8000e2a:	6803      	ldr	r3, [r0, #0]
 8000e2c:	b082      	sub	sp, #8
 8000e2e:	f1b3 4f80 	cmp.w	r3, #1073741824	@ 0x40000000
 8000e32:	d10a      	bne.n	8000e4a <HAL_TIM_Base_MspInit+0x20>
 8000e34:	f503 3304 	add.w	r3, r3, #135168	@ 0x21000
 8000e38:	69da      	ldr	r2, [r3, #28]
 8000e3a:	f042 0201 	orr.w	r2, r2, #1
 8000e3e:	61da      	str	r2, [r3, #28]
 8000e40:	69db      	ldr	r3, [r3, #28]
 8000e42:	f003 0301 	and.w	r3, r3, #1
 8000e46:	9301      	str	r3, [sp, #4]
 8000e48:	9b01      	ldr	r3, [sp, #4]
 8000e4a:	b002      	add	sp, #8
 8000e4c:	4770      	bx	lr
	...

08000e50 <HAL_TIM_MspPostInit>:
 8000e50:	b510      	push	{r4, lr}
 8000e52:	4604      	mov	r4, r0
 8000e54:	b086      	sub	sp, #24
 8000e56:	2210      	movs	r2, #16
 8000e58:	2100      	movs	r1, #0
 8000e5a:	a802      	add	r0, sp, #8
 8000e5c:	f003 f841 	bl	8003ee2 <memset>
 8000e60:	6823      	ldr	r3, [r4, #0]
 8000e62:	f1b3 4f80 	cmp.w	r3, #1073741824	@ 0x40000000
 8000e66:	d112      	bne.n	8000e8e <HAL_TIM_MspPostInit+0x3e>
 8000e68:	f503 3304 	add.w	r3, r3, #135168	@ 0x21000
 8000e6c:	699a      	ldr	r2, [r3, #24]
 8000e6e:	4809      	ldr	r0, [pc, #36]	@ (8000e94 <HAL_TIM_MspPostInit+0x44>)
 8000e70:	f042 0204 	orr.w	r2, r2, #4
 8000e74:	619a      	str	r2, [r3, #24]
 8000e76:	699b      	ldr	r3, [r3, #24]
 8000e78:	a902      	add	r1, sp, #8
 8000e7a:	f003 0304 	and.w	r3, r3, #4
 8000e7e:	9301      	str	r3, [sp, #4]
 8000e80:	9b01      	ldr	r3, [sp, #4]
 8000e82:	2302      	movs	r3, #2
 8000e84:	e9cd 3302 	strd	r3, r3, [sp, #8]
 8000e88:	9305      	str	r3, [sp, #20]
 8000e8a:	f000 fb25 	bl	80014d8 <HAL_GPIO_Init>
 8000e8e:	b006      	add	sp, #24
 8000e90:	bd10      	pop	{r4, pc}
 8000e92:	bf00      	nop
 8000e94:	40010800 	.word	0x40010800

08000e98 <MX_TIM2_Init>:
 8000e98:	b510      	push	{r4, lr}
 8000e9a:	b08e      	sub	sp, #56	@ 0x38
 8000e9c:	2210      	movs	r2, #16
 8000e9e:	2100      	movs	r1, #0
 8000ea0:	a803      	add	r0, sp, #12
 8000ea2:	f003 f81e 	bl	8003ee2 <memset>
 8000ea6:	2400      	movs	r4, #0
 8000ea8:	221c      	movs	r2, #28
 8000eaa:	4621      	mov	r1, r4
 8000eac:	eb0d 0002 	add.w	r0, sp, r2
 8000eb0:	e9cd 4401 	strd	r4, r4, [sp, #4]
 8000eb4:	f003 f815 	bl	8003ee2 <memset>
 8000eb8:	f04f 4380 	mov.w	r3, #1073741824	@ 0x40000000
 8000ebc:	4a1d      	ldr	r2, [pc, #116]	@ (8000f34 <MX_TIM2_Init+0x9c>)
 8000ebe:	6013      	str	r3, [r2, #0]
 8000ec0:	237f      	movs	r3, #127	@ 0x7f
 8000ec2:	e9c2 3401 	strd	r3, r4, [r2, #4]
 8000ec6:	f240 2371 	movw	r3, #625	@ 0x271
 8000eca:	4610      	mov	r0, r2
 8000ecc:	e9c2 3403 	strd	r3, r4, [r2, #12]
 8000ed0:	6194      	str	r4, [r2, #24]
 8000ed2:	f002 f869 	bl	8002fa8 <HAL_TIM_Base_Init>
 8000ed6:	b108      	cbz	r0, 8000edc <MX_TIM2_Init+0x44>
 8000ed8:	f7ff fb97 	bl	800060a <Error_Handler>
 8000edc:	f44f 5380 	mov.w	r3, #4096	@ 0x1000
 8000ee0:	4814      	ldr	r0, [pc, #80]	@ (8000f34 <MX_TIM2_Init+0x9c>)
 8000ee2:	a903      	add	r1, sp, #12
 8000ee4:	9303      	str	r3, [sp, #12]
 8000ee6:	f002 f945 	bl	8003174 <HAL_TIM_ConfigClockSource>
 8000eea:	b108      	cbz	r0, 8000ef0 <MX_TIM2_Init+0x58>
 8000eec:	f7ff fb8d 	bl	800060a <Error_Handler>
 8000ef0:	4810      	ldr	r0, [pc, #64]	@ (8000f34 <MX_TIM2_Init+0x9c>)
 8000ef2:	f002 f885 	bl	8003000 <HAL_TIM_PWM_Init>
 8000ef6:	b108      	cbz	r0, 8000efc <MX_TIM2_Init+0x64>
 8000ef8:	f7ff fb87 	bl	800060a <Error_Handler>
 8000efc:	2400      	movs	r4, #0
 8000efe:	480d      	ldr	r0, [pc, #52]	@ (8000f34 <MX_TIM2_Init+0x9c>)
 8000f00:	a901      	add	r1, sp, #4
 8000f02:	e9cd 4401 	strd	r4, r4, [sp, #4]
 8000f06:	f002 f9cf 	bl	80032a8 <HAL_TIMEx_MasterConfigSynchronization>
 8000f0a:	b108      	cbz	r0, 8000f10 <MX_TIM2_Init+0x78>
 8000f0c:	f7ff fb7d 	bl	800060a <Error_Handler>
 8000f10:	2360      	movs	r3, #96	@ 0x60
 8000f12:	2204      	movs	r2, #4
 8000f14:	4807      	ldr	r0, [pc, #28]	@ (8000f34 <MX_TIM2_Init+0x9c>)
 8000f16:	a907      	add	r1, sp, #28
 8000f18:	e9cd 3407 	strd	r3, r4, [sp, #28]
 8000f1c:	9409      	str	r4, [sp, #36]	@ 0x24
 8000f1e:	940b      	str	r4, [sp, #44]	@ 0x2c
 8000f20:	f002 f8c6 	bl	80030b0 <HAL_TIM_PWM_ConfigChannel>
 8000f24:	b108      	cbz	r0, 8000f2a <MX_TIM2_Init+0x92>
 8000f26:	f7ff fb70 	bl	800060a <Error_Handler>
 8000f2a:	4802      	ldr	r0, [pc, #8]	@ (8000f34 <MX_TIM2_Init+0x9c>)
 8000f2c:	f7ff ff90 	bl	8000e50 <HAL_TIM_MspPostInit>
 8000f30:	b00e      	add	sp, #56	@ 0x38
 8000f32:	bd10      	pop	{r4, pc}
 8000f34:	20000110 	.word	0x20000110

08000f38 <MX_USART1_UART_Init>:
 8000f38:	b508      	push	{r3, lr}
 8000f3a:	490b      	ldr	r1, [pc, #44]	@ (8000f68 <MX_USART1_UART_Init+0x30>)
 8000f3c:	4b0b      	ldr	r3, [pc, #44]	@ (8000f6c <MX_USART1_UART_Init+0x34>)
 8000f3e:	f44f 32e1 	mov.w	r2, #115200	@ 0x1c200
 8000f42:	600b      	str	r3, [r1, #0]
 8000f44:	2300      	movs	r3, #0
 8000f46:	e9c1 2301 	strd	r2, r3, [r1, #4]
 8000f4a:	220c      	movs	r2, #12
 8000f4c:	4608      	mov	r0, r1
 8000f4e:	e9c1 3303 	strd	r3, r3, [r1, #12]
 8000f52:	e9c1 2305 	strd	r2, r3, [r1, #20]
 8000f56:	61cb      	str	r3, [r1, #28]
 8000f58:	f002 fa6e 	bl	8003438 <HAL_UART_Init>
 8000f5c:	b118      	cbz	r0, 8000f66 <MX_USART1_UART_Init+0x2e>
 8000f5e:	e8bd 4008 	ldmia.w	sp!, {r3, lr}
 8000f62:	f7ff bb52 	b.w	800060a <Error_Handler>
 8000f66:	bd08      	pop	{r3, pc}
 8000f68:	20000158 	.word	0x20000158
 8000f6c:	40013800 	.word	0x40013800

08000f70 <HAL_UART_MspInit>:
 8000f70:	b510      	push	{r4, lr}
 8000f72:	4604      	mov	r4, r0
 8000f74:	b086      	sub	sp, #24
 8000f76:	2210      	movs	r2, #16
 8000f78:	2100      	movs	r1, #0
 8000f7a:	a802      	add	r0, sp, #8
 8000f7c:	f002 ffb1 	bl	8003ee2 <memset>
 8000f80:	6822      	ldr	r2, [r4, #0]
 8000f82:	4b1b      	ldr	r3, [pc, #108]	@ (8000ff0 <HAL_UART_MspInit+0x80>)
 8000f84:	429a      	cmp	r2, r3
 8000f86:	d130      	bne.n	8000fea <HAL_UART_MspInit+0x7a>
 8000f88:	f503 4358 	add.w	r3, r3, #55296	@ 0xd800
 8000f8c:	699a      	ldr	r2, [r3, #24]
 8000f8e:	4819      	ldr	r0, [pc, #100]	@ (8000ff4 <HAL_UART_MspInit+0x84>)
 8000f90:	f442 4280 	orr.w	r2, r2, #16384	@ 0x4000
 8000f94:	619a      	str	r2, [r3, #24]
 8000f96:	699a      	ldr	r2, [r3, #24]
 8000f98:	a902      	add	r1, sp, #8
 8000f9a:	f402 4280 	and.w	r2, r2, #16384	@ 0x4000
 8000f9e:	9200      	str	r2, [sp, #0]
 8000fa0:	9a00      	ldr	r2, [sp, #0]
 8000fa2:	699a      	ldr	r2, [r3, #24]
 8000fa4:	2400      	movs	r4, #0
 8000fa6:	f042 0204 	orr.w	r2, r2, #4
 8000faa:	619a      	str	r2, [r3, #24]
 8000fac:	699b      	ldr	r3, [r3, #24]
 8000fae:	f44f 7200 	mov.w	r2, #512	@ 0x200
 8000fb2:	f003 0304 	and.w	r3, r3, #4
 8000fb6:	9301      	str	r3, [sp, #4]
 8000fb8:	9b01      	ldr	r3, [sp, #4]
 8000fba:	2302      	movs	r3, #2
 8000fbc:	e9cd 2302 	strd	r2, r3, [sp, #8]
 8000fc0:	2303      	movs	r3, #3
 8000fc2:	9305      	str	r3, [sp, #20]
 8000fc4:	f000 fa88 	bl	80014d8 <HAL_GPIO_Init>
 8000fc8:	f44f 6380 	mov.w	r3, #1024	@ 0x400
 8000fcc:	4809      	ldr	r0, [pc, #36]	@ (8000ff4 <HAL_UART_MspInit+0x84>)
 8000fce:	a902      	add	r1, sp, #8
 8000fd0:	e9cd 3402 	strd	r3, r4, [sp, #8]
 8000fd4:	9404      	str	r4, [sp, #16]
 8000fd6:	f000 fa7f 	bl	80014d8 <HAL_GPIO_Init>
 8000fda:	2025      	movs	r0, #37	@ 0x25
 8000fdc:	4622      	mov	r2, r4
 8000fde:	4621      	mov	r1, r4
 8000fe0:	f000 f9be 	bl	8001360 <HAL_NVIC_SetPriority>
 8000fe4:	2025      	movs	r0, #37	@ 0x25
 8000fe6:	f000 f9eb 	bl	80013c0 <HAL_NVIC_EnableIRQ>
 8000fea:	b006      	add	sp, #24
 8000fec:	bd10      	pop	{r4, pc}
 8000fee:	bf00      	nop
 8000ff0:	40013800 	.word	0x40013800
 8000ff4:	40010800 	.word	0x40010800

08000ff8 <Reset_Handler>:
 8000ff8:	f7ff ff16 	bl	8000e28 <SystemInit>
 8000ffc:	480b      	ldr	r0, [pc, #44]	@ (800102c <LoopFillZerobss+0xe>)
 8000ffe:	490c      	ldr	r1, [pc, #48]	@ (8001030 <LoopFillZerobss+0x12>)
 8001000:	4a0c      	ldr	r2, [pc, #48]	@ (8001034 <LoopFillZerobss+0x16>)
 8001002:	2300      	movs	r3, #0
 8001004:	e002      	b.n	800100c <LoopCopyDataInit>

08001006 <CopyDataInit>:
 8001006:	58d4      	ldr	r4, [r2, r3]
 8001008:	50c4      	str	r4, [r0, r3]
 800100a:	3304      	adds	r3, #4

0800100c <LoopCopyDataInit>:
 800100c:	18c4      	adds	r4, r0, r3
 800100e:	428c      	cmp	r4, r1
 8001010:	d3f9      	bcc.n	8001006 <CopyDataInit>
 8001012:	4a09      	ldr	r2, [pc, #36]	@ (8001038 <LoopFillZerobss+0x1a>)
 8001014:	4c09      	ldr	r4, [pc, #36]	@ (800103c <LoopFillZerobss+0x1e>)
 8001016:	2300      	movs	r3, #0
 8001018:	e001      	b.n	800101e <LoopFillZerobss>

0800101a <FillZerobss>:
 800101a:	6013      	str	r3, [r2, #0]
 800101c:	3204      	adds	r2, #4

0800101e <LoopFillZerobss>:
 800101e:	42a2      	cmp	r2, r4
 8001020:	d3fb      	bcc.n	800101a <FillZerobss>
 8001022:	f002 ffc1 	bl	8003fa8 <__libc_init_array>
 8001026:	f7ff fd83 	bl	8000b30 <main>
 800102a:	4770      	bx	lr
 800102c:	20000000 	.word	0x20000000
 8001030:	20000060 	.word	0x20000060
 8001034:	08004324 	.word	0x08004324
 8001038:	20000060 	.word	0x20000060
 800103c:	200002f0 	.word	0x200002f0

08001040 <ADC1_2_IRQHandler>:
 8001040:	e7fe      	b.n	8001040 <ADC1_2_IRQHandler>
	...

08001044 <HAL_InitTick>:
 8001044:	b538      	push	{r3, r4, r5, lr}
 8001046:	4b0e      	ldr	r3, [pc, #56]	@ (8001080 <HAL_InitTick+0x3c>)
 8001048:	4605      	mov	r5, r0
 800104a:	781a      	ldrb	r2, [r3, #0]
 800104c:	f44f 737a 	mov.w	r3, #1000	@ 0x3e8
 8001050:	fbb3 f3f2 	udiv	r3, r3, r2
 8001054:	4a0b      	ldr	r2, [pc, #44]	@ (8001084 <HAL_InitTick+0x40>)
 8001056:	6810      	ldr	r0, [r2, #0]
 8001058:	fbb0 f0f3 	udiv	r0, r0, r3
 800105c:	f000 f9be 	bl	80013dc <HAL_SYSTICK_Config>
 8001060:	4604      	mov	r4, r0
 8001062:	b958      	cbnz	r0, 800107c <HAL_InitTick+0x38>
 8001064:	2d0f      	cmp	r5, #15
 8001066:	d809      	bhi.n	800107c <HAL_InitTick+0x38>
 8001068:	4602      	mov	r2, r0
 800106a:	4629      	mov	r1, r5
 800106c:	f04f 30ff 	mov.w	r0, #4294967295
 8001070:	f000 f976 	bl	8001360 <HAL_NVIC_SetPriority>
 8001074:	4620      	mov	r0, r4
 8001076:	4b04      	ldr	r3, [pc, #16]	@ (8001088 <HAL_InitTick+0x44>)
 8001078:	601d      	str	r5, [r3, #0]
 800107a:	bd38      	pop	{r3, r4, r5, pc}
 800107c:	2001      	movs	r0, #1
 800107e:	e7fc      	b.n	800107a <HAL_InitTick+0x36>
 8001080:	20000008 	.word	0x20000008
 8001084:	20000004 	.word	0x20000004
 8001088:	2000000c 	.word	0x2000000c

0800108c <HAL_Init>:
 800108c:	4a07      	ldr	r2, [pc, #28]	@ (80010ac <HAL_Init+0x20>)
 800108e:	b508      	push	{r3, lr}
 8001090:	6813      	ldr	r3, [r2, #0]
 8001092:	2003      	movs	r0, #3
 8001094:	f043 0310 	orr.w	r3, r3, #16
 8001098:	6013      	str	r3, [r2, #0]
 800109a:	f000 f94f 	bl	800133c <HAL_NVIC_SetPriorityGrouping>
 800109e:	200f      	movs	r0, #15
 80010a0:	f7ff ffd0 	bl	8001044 <HAL_InitTick>
 80010a4:	f7ff fe5a 	bl	8000d5c <HAL_MspInit>
 80010a8:	2000      	movs	r0, #0
 80010aa:	bd08      	pop	{r3, pc}
 80010ac:	40022000 	.word	0x40022000

080010b0 <HAL_IncTick>:
 80010b0:	4a03      	ldr	r2, [pc, #12]	@ (80010c0 <HAL_IncTick+0x10>)
 80010b2:	4b04      	ldr	r3, [pc, #16]	@ (80010c4 <HAL_IncTick+0x14>)
 80010b4:	6811      	ldr	r1, [r2, #0]
 80010b6:	781b      	ldrb	r3, [r3, #0]
 80010b8:	440b      	add	r3, r1
 80010ba:	6013      	str	r3, [r2, #0]
 80010bc:	4770      	bx	lr
 80010be:	bf00      	nop
 80010c0:	200001a0 	.word	0x200001a0
 80010c4:	20000008 	.word	0x20000008

080010c8 <HAL_GetTick>:
 80010c8:	4b01      	ldr	r3, [pc, #4]	@ (80010d0 <HAL_GetTick+0x8>)
 80010ca:	6818      	ldr	r0, [r3, #0]
 80010cc:	4770      	bx	lr
 80010ce:	bf00      	nop
 80010d0:	200001a0 	.word	0x200001a0

080010d4 <HAL_Delay>:
 80010d4:	b538      	push	{r3, r4, r5, lr}
 80010d6:	4604      	mov	r4, r0
 80010d8:	f7ff fff6 	bl	80010c8 <HAL_GetTick>
 80010dc:	4605      	mov	r5, r0
 80010de:	1c63      	adds	r3, r4, #1
 80010e0:	bf1e      	ittt	ne
 80010e2:	4b04      	ldrne	r3, [pc, #16]	@ (80010f4 <HAL_Delay+0x20>)
 80010e4:	781b      	ldrbne	r3, [r3, #0]
 80010e6:	18e4      	addne	r4, r4, r3
 80010e8:	f7ff ffee 	bl	80010c8 <HAL_GetTick>
 80010ec:	1b43      	subs	r3, r0, r5
 80010ee:	42a3      	cmp	r3, r4
 80010f0:	d3fa      	bcc.n	80010e8 <HAL_Delay+0x14>
 80010f2:	bd38      	pop	{r3, r4, r5, pc}
 80010f4:	20000008 	.word	0x20000008

080010f8 <HAL_ADC_ConfigChannel>:
 80010f8:	2300      	movs	r3, #0
 80010fa:	b573      	push	{r0, r1, r4, r5, r6, lr}
 80010fc:	9301      	str	r3, [sp, #4]
 80010fe:	f890 3024 	ldrb.w	r3, [r0, #36]	@ 0x24
 8001102:	4604      	mov	r4, r0
 8001104:	2b01      	cmp	r3, #1
 8001106:	d06c      	beq.n	80011e2 <HAL_ADC_ConfigChannel+0xea>
 8001108:	2301      	movs	r3, #1
 800110a:	f880 3024 	strb.w	r3, [r0, #36]	@ 0x24
 800110e:	684d      	ldr	r5, [r1, #4]
 8001110:	6802      	ldr	r2, [r0, #0]
 8001112:	2d06      	cmp	r5, #6
 8001114:	6808      	ldr	r0, [r1, #0]
 8001116:	eb05 0385 	add.w	r3, r5, r5, lsl #2
 800111a:	d822      	bhi.n	8001162 <HAL_ADC_ConfigChannel+0x6a>
 800111c:	261f      	movs	r6, #31
 800111e:	6b55      	ldr	r5, [r2, #52]	@ 0x34
 8001120:	3b05      	subs	r3, #5
 8001122:	409e      	lsls	r6, r3
 8001124:	ea25 0506 	bic.w	r5, r5, r6
 8001128:	fa00 f303 	lsl.w	r3, r0, r3
 800112c:	432b      	orrs	r3, r5
 800112e:	6353      	str	r3, [r2, #52]	@ 0x34
 8001130:	2809      	cmp	r0, #9
 8001132:	688b      	ldr	r3, [r1, #8]
 8001134:	eb00 0540 	add.w	r5, r0, r0, lsl #1
 8001138:	f04f 0107 	mov.w	r1, #7
 800113c:	d929      	bls.n	8001192 <HAL_ADC_ConfigChannel+0x9a>
 800113e:	68d6      	ldr	r6, [r2, #12]
 8001140:	3d1e      	subs	r5, #30
 8001142:	40a9      	lsls	r1, r5
 8001144:	ea26 0101 	bic.w	r1, r6, r1
 8001148:	40ab      	lsls	r3, r5
 800114a:	430b      	orrs	r3, r1
 800114c:	60d3      	str	r3, [r2, #12]
 800114e:	f1a0 0310 	sub.w	r3, r0, #16
 8001152:	2b01      	cmp	r3, #1
 8001154:	d925      	bls.n	80011a2 <HAL_ADC_ConfigChannel+0xaa>
 8001156:	2000      	movs	r0, #0
 8001158:	2300      	movs	r3, #0
 800115a:	f884 3024 	strb.w	r3, [r4, #36]	@ 0x24
 800115e:	b002      	add	sp, #8
 8001160:	bd70      	pop	{r4, r5, r6, pc}
 8001162:	2d0c      	cmp	r5, #12
 8001164:	f04f 051f 	mov.w	r5, #31
 8001168:	d809      	bhi.n	800117e <HAL_ADC_ConfigChannel+0x86>
 800116a:	6b16      	ldr	r6, [r2, #48]	@ 0x30
 800116c:	3b23      	subs	r3, #35	@ 0x23
 800116e:	409d      	lsls	r5, r3
 8001170:	ea26 0505 	bic.w	r5, r6, r5
 8001174:	fa00 f303 	lsl.w	r3, r0, r3
 8001178:	432b      	orrs	r3, r5
 800117a:	6313      	str	r3, [r2, #48]	@ 0x30
 800117c:	e7d8      	b.n	8001130 <HAL_ADC_ConfigChannel+0x38>
 800117e:	6ad6      	ldr	r6, [r2, #44]	@ 0x2c
 8001180:	3b41      	subs	r3, #65	@ 0x41
 8001182:	409d      	lsls	r5, r3
 8001184:	ea26 0505 	bic.w	r5, r6, r5
 8001188:	fa00 f303 	lsl.w	r3, r0, r3
 800118c:	432b      	orrs	r3, r5
 800118e:	62d3      	str	r3, [r2, #44]	@ 0x2c
 8001190:	e7ce      	b.n	8001130 <HAL_ADC_ConfigChannel+0x38>
 8001192:	6910      	ldr	r0, [r2, #16]
 8001194:	40a9      	lsls	r1, r5
 8001196:	ea20 0101 	bic.w	r1, r0, r1
 800119a:	40ab      	lsls	r3, r5
 800119c:	430b      	orrs	r3, r1
 800119e:	6113      	str	r3, [r2, #16]
 80011a0:	e7d9      	b.n	8001156 <HAL_ADC_ConfigChannel+0x5e>
 80011a2:	4b11      	ldr	r3, [pc, #68]	@ (80011e8 <HAL_ADC_ConfigChannel+0xf0>)
 80011a4:	429a      	cmp	r2, r3
 80011a6:	d116      	bne.n	80011d6 <HAL_ADC_ConfigChannel+0xde>
 80011a8:	6893      	ldr	r3, [r2, #8]
 80011aa:	021b      	lsls	r3, r3, #8
 80011ac:	d4d3      	bmi.n	8001156 <HAL_ADC_ConfigChannel+0x5e>
 80011ae:	6893      	ldr	r3, [r2, #8]
 80011b0:	2810      	cmp	r0, #16
 80011b2:	f443 0300 	orr.w	r3, r3, #8388608	@ 0x800000
 80011b6:	6093      	str	r3, [r2, #8]
 80011b8:	d1cd      	bne.n	8001156 <HAL_ADC_ConfigChannel+0x5e>
 80011ba:	4b0c      	ldr	r3, [pc, #48]	@ (80011ec <HAL_ADC_ConfigChannel+0xf4>)
 80011bc:	4a0c      	ldr	r2, [pc, #48]	@ (80011f0 <HAL_ADC_ConfigChannel+0xf8>)
 80011be:	681b      	ldr	r3, [r3, #0]
 80011c0:	fbb3 f3f2 	udiv	r3, r3, r2
 80011c4:	220a      	movs	r2, #10
 80011c6:	4353      	muls	r3, r2
 80011c8:	9301      	str	r3, [sp, #4]
 80011ca:	9b01      	ldr	r3, [sp, #4]
 80011cc:	2b00      	cmp	r3, #0
 80011ce:	d0c2      	beq.n	8001156 <HAL_ADC_ConfigChannel+0x5e>
 80011d0:	9b01      	ldr	r3, [sp, #4]
 80011d2:	3b01      	subs	r3, #1
 80011d4:	e7f8      	b.n	80011c8 <HAL_ADC_ConfigChannel+0xd0>
 80011d6:	6aa3      	ldr	r3, [r4, #40]	@ 0x28
 80011d8:	2001      	movs	r0, #1
 80011da:	f043 0320 	orr.w	r3, r3, #32
 80011de:	62a3      	str	r3, [r4, #40]	@ 0x28
 80011e0:	e7ba      	b.n	8001158 <HAL_ADC_ConfigChannel+0x60>
 80011e2:	2002      	movs	r0, #2
 80011e4:	e7bb      	b.n	800115e <HAL_ADC_ConfigChannel+0x66>
 80011e6:	bf00      	nop
 80011e8:	40012400 	.word	0x40012400
 80011ec:	20000004 	.word	0x20000004
 80011f0:	000f4240 	.word	0x000f4240

080011f4 <ADC_ConversionStop_Disable>:
 80011f4:	b538      	push	{r3, r4, r5, lr}
 80011f6:	6803      	ldr	r3, [r0, #0]
 80011f8:	4604      	mov	r4, r0
 80011fa:	689a      	ldr	r2, [r3, #8]
 80011fc:	07d1      	lsls	r1, r2, #31
 80011fe:	d401      	bmi.n	8001204 <ADC_ConversionStop_Disable+0x10>
 8001200:	2000      	movs	r0, #0
 8001202:	bd38      	pop	{r3, r4, r5, pc}
 8001204:	689a      	ldr	r2, [r3, #8]
 8001206:	f022 0201 	bic.w	r2, r2, #1
 800120a:	609a      	str	r2, [r3, #8]
 800120c:	f7ff ff5c 	bl	80010c8 <HAL_GetTick>
 8001210:	4605      	mov	r5, r0
 8001212:	6823      	ldr	r3, [r4, #0]
 8001214:	689b      	ldr	r3, [r3, #8]
 8001216:	07db      	lsls	r3, r3, #31
 8001218:	d5f2      	bpl.n	8001200 <ADC_ConversionStop_Disable+0xc>
 800121a:	f7ff ff55 	bl	80010c8 <HAL_GetTick>
 800121e:	1b40      	subs	r0, r0, r5
 8001220:	2802      	cmp	r0, #2
 8001222:	d9f6      	bls.n	8001212 <ADC_ConversionStop_Disable+0x1e>
 8001224:	6823      	ldr	r3, [r4, #0]
 8001226:	689b      	ldr	r3, [r3, #8]
 8001228:	07da      	lsls	r2, r3, #31
 800122a:	d5f2      	bpl.n	8001212 <ADC_ConversionStop_Disable+0x1e>
 800122c:	6aa3      	ldr	r3, [r4, #40]	@ 0x28
 800122e:	2001      	movs	r0, #1
 8001230:	f043 0310 	orr.w	r3, r3, #16
 8001234:	62a3      	str	r3, [r4, #40]	@ 0x28
 8001236:	6ae3      	ldr	r3, [r4, #44]	@ 0x2c
 8001238:	f043 0301 	orr.w	r3, r3, #1
 800123c:	62e3      	str	r3, [r4, #44]	@ 0x2c
 800123e:	e7e0      	b.n	8001202 <ADC_ConversionStop_Disable+0xe>

08001240 <HAL_ADC_Init>:
 8001240:	b5f8      	push	{r3, r4, r5, r6, r7, lr}
 8001242:	4604      	mov	r4, r0
 8001244:	2800      	cmp	r0, #0
 8001246:	d06d      	beq.n	8001324 <HAL_ADC_Init+0xe4>
 8001248:	6a83      	ldr	r3, [r0, #40]	@ 0x28
 800124a:	b923      	cbnz	r3, 8001256 <HAL_ADC_Init+0x16>
 800124c:	62c3      	str	r3, [r0, #44]	@ 0x2c
 800124e:	f880 3024 	strb.w	r3, [r0, #36]	@ 0x24
 8001252:	f7fe ffad 	bl	80001b0 <HAL_ADC_MspInit>
 8001256:	4620      	mov	r0, r4
 8001258:	f7ff ffcc 	bl	80011f4 <ADC_ConversionStop_Disable>
 800125c:	6aa3      	ldr	r3, [r4, #40]	@ 0x28
 800125e:	f013 0310 	ands.w	r3, r3, #16
 8001262:	d161      	bne.n	8001328 <HAL_ADC_Init+0xe8>
 8001264:	2800      	cmp	r0, #0
 8001266:	d15f      	bne.n	8001328 <HAL_ADC_Init+0xe8>
 8001268:	6aa2      	ldr	r2, [r4, #40]	@ 0x28
 800126a:	6861      	ldr	r1, [r4, #4]
 800126c:	f422 5288 	bic.w	r2, r2, #4352	@ 0x1100
 8001270:	f022 0202 	bic.w	r2, r2, #2
 8001274:	f042 0202 	orr.w	r2, r2, #2
 8001278:	69e5      	ldr	r5, [r4, #28]
 800127a:	68a6      	ldr	r6, [r4, #8]
 800127c:	62a2      	str	r2, [r4, #40]	@ 0x28
 800127e:	7b22      	ldrb	r2, [r4, #12]
 8001280:	4329      	orrs	r1, r5
 8001282:	f5b6 7f80 	cmp.w	r6, #256	@ 0x100
 8001286:	ea41 0142 	orr.w	r1, r1, r2, lsl #1
 800128a:	d036      	beq.n	80012fa <HAL_ADC_Init+0xba>
 800128c:	1e77      	subs	r7, r6, #1
 800128e:	427d      	negs	r5, r7
 8001290:	417d      	adcs	r5, r7
 8001292:	022d      	lsls	r5, r5, #8
 8001294:	7d27      	ldrb	r7, [r4, #20]
 8001296:	2f01      	cmp	r7, #1
 8001298:	d106      	bne.n	80012a8 <HAL_ADC_Init+0x68>
 800129a:	bb82      	cbnz	r2, 80012fe <HAL_ADC_Init+0xbe>
 800129c:	69a2      	ldr	r2, [r4, #24]
 800129e:	3a01      	subs	r2, #1
 80012a0:	ea45 3242 	orr.w	r2, r5, r2, lsl #13
 80012a4:	f442 6500 	orr.w	r5, r2, #2048	@ 0x800
 80012a8:	6822      	ldr	r2, [r4, #0]
 80012aa:	f5b6 7f80 	cmp.w	r6, #256	@ 0x100
 80012ae:	6857      	ldr	r7, [r2, #4]
 80012b0:	f427 4769 	bic.w	r7, r7, #59648	@ 0xe900
 80012b4:	ea45 0507 	orr.w	r5, r5, r7
 80012b8:	6055      	str	r5, [r2, #4]
 80012ba:	6897      	ldr	r7, [r2, #8]
 80012bc:	4d1d      	ldr	r5, [pc, #116]	@ (8001334 <HAL_ADC_Init+0xf4>)
 80012be:	ea05 0507 	and.w	r5, r5, r7
 80012c2:	ea45 0501 	orr.w	r5, r5, r1
 80012c6:	6095      	str	r5, [r2, #8]
 80012c8:	d001      	beq.n	80012ce <HAL_ADC_Init+0x8e>
 80012ca:	2e01      	cmp	r6, #1
 80012cc:	d102      	bne.n	80012d4 <HAL_ADC_Init+0x94>
 80012ce:	6923      	ldr	r3, [r4, #16]
 80012d0:	3b01      	subs	r3, #1
 80012d2:	051b      	lsls	r3, r3, #20
 80012d4:	6ad5      	ldr	r5, [r2, #44]	@ 0x2c
 80012d6:	f425 0570 	bic.w	r5, r5, #15728640	@ 0xf00000
 80012da:	432b      	orrs	r3, r5
 80012dc:	62d3      	str	r3, [r2, #44]	@ 0x2c
 80012de:	6892      	ldr	r2, [r2, #8]
 80012e0:	4b15      	ldr	r3, [pc, #84]	@ (8001338 <HAL_ADC_Init+0xf8>)
 80012e2:	4013      	ands	r3, r2
 80012e4:	4299      	cmp	r1, r3
 80012e6:	d113      	bne.n	8001310 <HAL_ADC_Init+0xd0>
 80012e8:	2300      	movs	r3, #0
 80012ea:	62e3      	str	r3, [r4, #44]	@ 0x2c
 80012ec:	6aa3      	ldr	r3, [r4, #40]	@ 0x28
 80012ee:	f023 0303 	bic.w	r3, r3, #3
 80012f2:	f043 0301 	orr.w	r3, r3, #1
 80012f6:	62a3      	str	r3, [r4, #40]	@ 0x28
 80012f8:	bdf8      	pop	{r3, r4, r5, r6, r7, pc}
 80012fa:	4635      	mov	r5, r6
 80012fc:	e7ca      	b.n	8001294 <HAL_ADC_Init+0x54>
 80012fe:	6aa2      	ldr	r2, [r4, #40]	@ 0x28
 8001300:	f042 0220 	orr.w	r2, r2, #32
 8001304:	62a2      	str	r2, [r4, #40]	@ 0x28
 8001306:	6ae2      	ldr	r2, [r4, #44]	@ 0x2c
 8001308:	f042 0201 	orr.w	r2, r2, #1
 800130c:	62e2      	str	r2, [r4, #44]	@ 0x2c
 800130e:	e7cb      	b.n	80012a8 <HAL_ADC_Init+0x68>
 8001310:	6aa3      	ldr	r3, [r4, #40]	@ 0x28
 8001312:	f023 0312 	bic.w	r3, r3, #18
 8001316:	f043 0310 	orr.w	r3, r3, #16
 800131a:	62a3      	str	r3, [r4, #40]	@ 0x28
 800131c:	6ae3      	ldr	r3, [r4, #44]	@ 0x2c
 800131e:	f043 0301 	orr.w	r3, r3, #1
 8001322:	62e3      	str	r3, [r4, #44]	@ 0x2c
 8001324:	2001      	movs	r0, #1
 8001326:	e7e7      	b.n	80012f8 <HAL_ADC_Init+0xb8>
 8001328:	6aa3      	ldr	r3, [r4, #40]	@ 0x28
 800132a:	f043 0310 	orr.w	r3, r3, #16
 800132e:	62a3      	str	r3, [r4, #40]	@ 0x28
 8001330:	e7f8      	b.n	8001324 <HAL_ADC_Init+0xe4>
 8001332:	bf00      	nop
 8001334:	ffe1f7fd 	.word	0xffe1f7fd
 8001338:	ff1f0efe 	.word	0xff1f0efe

0800133c <HAL_NVIC_SetPriorityGrouping>:
 800133c:	4907      	ldr	r1, [pc, #28]	@ (800135c <HAL_NVIC_SetPriorityGrouping+0x20>)
 800133e:	0203      	lsls	r3, r0, #8
 8001340:	68ca      	ldr	r2, [r1, #12]
 8001342:	f403 63e0 	and.w	r3, r3, #1792	@ 0x700
 8001346:	f422 62e0 	bic.w	r2, r2, #1792	@ 0x700
 800134a:	0412      	lsls	r2, r2, #16
 800134c:	0c12      	lsrs	r2, r2, #16
 800134e:	4313      	orrs	r3, r2
 8001350:	f043 63bf 	orr.w	r3, r3, #100139008	@ 0x5f80000
 8001354:	f443 3300 	orr.w	r3, r3, #131072	@ 0x20000
 8001358:	60cb      	str	r3, [r1, #12]
 800135a:	4770      	bx	lr
 800135c:	e000ed00 	.word	0xe000ed00

08001360 <HAL_NVIC_SetPriority>:
 8001360:	4b15      	ldr	r3, [pc, #84]	@ (80013b8 <HAL_NVIC_SetPriority+0x58>)
 8001362:	b530      	push	{r4, r5, lr}
 8001364:	68dc      	ldr	r4, [r3, #12]
 8001366:	f3c4 2402 	ubfx	r4, r4, #8, #3
 800136a:	f1c4 0307 	rsb	r3, r4, #7
 800136e:	1d25      	adds	r5, r4, #4
 8001370:	2b04      	cmp	r3, #4
 8001372:	bf28      	it	cs
 8001374:	2304      	movcs	r3, #4
 8001376:	2d06      	cmp	r5, #6
 8001378:	f04f 35ff 	mov.w	r5, #4294967295
 800137c:	bf94      	ite	ls
 800137e:	2400      	movls	r4, #0
 8001380:	3c03      	subhi	r4, #3
 8001382:	fa05 f303 	lsl.w	r3, r5, r3
 8001386:	ea21 0303 	bic.w	r3, r1, r3
 800138a:	40a5      	lsls	r5, r4
 800138c:	ea22 0205 	bic.w	r2, r2, r5
 8001390:	40a3      	lsls	r3, r4
 8001392:	2800      	cmp	r0, #0
 8001394:	ea43 0302 	orr.w	r3, r3, r2
 8001398:	bfac      	ite	ge
 800139a:	f100 4060 	addge.w	r0, r0, #3758096384	@ 0xe0000000
 800139e:	4a07      	ldrlt	r2, [pc, #28]	@ (80013bc <HAL_NVIC_SetPriority+0x5c>)
 80013a0:	ea4f 1303 	mov.w	r3, r3, lsl #4
 80013a4:	b2db      	uxtb	r3, r3
 80013a6:	bfab      	itete	ge
 80013a8:	f500 4061 	addge.w	r0, r0, #57600	@ 0xe100
 80013ac:	f000 000f 	andlt.w	r0, r0, #15
 80013b0:	f880 3300 	strbge.w	r3, [r0, #768]	@ 0x300
 80013b4:	5413      	strblt	r3, [r2, r0]
 80013b6:	bd30      	pop	{r4, r5, pc}
 80013b8:	e000ed00 	.word	0xe000ed00
 80013bc:	e000ed14 	.word	0xe000ed14

080013c0 <HAL_NVIC_EnableIRQ>:
 80013c0:	2800      	cmp	r0, #0
 80013c2:	db07      	blt.n	80013d4 <HAL_NVIC_EnableIRQ+0x14>
 80013c4:	2301      	movs	r3, #1
 80013c6:	0941      	lsrs	r1, r0, #5
 80013c8:	4a03      	ldr	r2, [pc, #12]	@ (80013d8 <HAL_NVIC_EnableIRQ+0x18>)
 80013ca:	f000 001f 	and.w	r0, r0, #31
 80013ce:	4083      	lsls	r3, r0
 80013d0:	f842 3021 	str.w	r3, [r2, r1, lsl #2]
 80013d4:	4770      	bx	lr
 80013d6:	bf00      	nop
 80013d8:	e000e100 	.word	0xe000e100

080013dc <HAL_SYSTICK_Config>:
 80013dc:	3801      	subs	r0, #1
 80013de:	f1b0 7f80 	cmp.w	r0, #16777216	@ 0x1000000
 80013e2:	d20b      	bcs.n	80013fc <HAL_SYSTICK_Config+0x20>
 80013e4:	f04f 23e0 	mov.w	r3, #3758153728	@ 0xe000e000
 80013e8:	21f0      	movs	r1, #240	@ 0xf0
 80013ea:	4a05      	ldr	r2, [pc, #20]	@ (8001400 <HAL_SYSTICK_Config+0x24>)
 80013ec:	6158      	str	r0, [r3, #20]
 80013ee:	f882 1023 	strb.w	r1, [r2, #35]	@ 0x23
 80013f2:	2000      	movs	r0, #0
 80013f4:	2207      	movs	r2, #7
 80013f6:	6198      	str	r0, [r3, #24]
 80013f8:	611a      	str	r2, [r3, #16]
 80013fa:	4770      	bx	lr
 80013fc:	2001      	movs	r0, #1
 80013fe:	4770      	bx	lr
 8001400:	e000ed00 	.word	0xe000ed00

08001404 <HAL_DMA_Abort>:
 8001404:	f890 2021 	ldrb.w	r2, [r0, #33]	@ 0x21
 8001408:	4603      	mov	r3, r0
 800140a:	2a02      	cmp	r2, #2
 800140c:	d006      	beq.n	800141c <HAL_DMA_Abort+0x18>
 800140e:	2204      	movs	r2, #4
 8001410:	6382      	str	r2, [r0, #56]	@ 0x38
 8001412:	2001      	movs	r0, #1
 8001414:	2200      	movs	r2, #0
 8001416:	f883 2020 	strb.w	r2, [r3, #32]
 800141a:	4770      	bx	lr
 800141c:	6802      	ldr	r2, [r0, #0]
 800141e:	6bc0      	ldr	r0, [r0, #60]	@ 0x3c
 8001420:	6811      	ldr	r1, [r2, #0]
 8001422:	f021 010e 	bic.w	r1, r1, #14
 8001426:	6011      	str	r1, [r2, #0]
 8001428:	6811      	ldr	r1, [r2, #0]
 800142a:	f021 0101 	bic.w	r1, r1, #1
 800142e:	6011      	str	r1, [r2, #0]
 8001430:	2101      	movs	r1, #1
 8001432:	6c1a      	ldr	r2, [r3, #64]	@ 0x40
 8001434:	fa01 f202 	lsl.w	r2, r1, r2
 8001438:	6042      	str	r2, [r0, #4]
 800143a:	2000      	movs	r0, #0
 800143c:	f883 1021 	strb.w	r1, [r3, #33]	@ 0x21
 8001440:	e7e8      	b.n	8001414 <HAL_DMA_Abort+0x10>
	...

08001444 <HAL_DMA_Abort_IT>:
 8001444:	b508      	push	{r3, lr}
 8001446:	f890 3021 	ldrb.w	r3, [r0, #33]	@ 0x21
 800144a:	2b02      	cmp	r3, #2
 800144c:	d003      	beq.n	8001456 <HAL_DMA_Abort_IT+0x12>
 800144e:	2304      	movs	r3, #4
 8001450:	6383      	str	r3, [r0, #56]	@ 0x38
 8001452:	2001      	movs	r0, #1
 8001454:	bd08      	pop	{r3, pc}
 8001456:	6803      	ldr	r3, [r0, #0]
 8001458:	681a      	ldr	r2, [r3, #0]
 800145a:	f022 020e 	bic.w	r2, r2, #14
 800145e:	601a      	str	r2, [r3, #0]
 8001460:	681a      	ldr	r2, [r3, #0]
 8001462:	f022 0201 	bic.w	r2, r2, #1
 8001466:	601a      	str	r2, [r3, #0]
 8001468:	4a17      	ldr	r2, [pc, #92]	@ (80014c8 <HAL_DMA_Abort_IT+0x84>)
 800146a:	4293      	cmp	r3, r2
 800146c:	d01f      	beq.n	80014ae <HAL_DMA_Abort_IT+0x6a>
 800146e:	3214      	adds	r2, #20
 8001470:	4293      	cmp	r3, r2
 8001472:	d01e      	beq.n	80014b2 <HAL_DMA_Abort_IT+0x6e>
 8001474:	3214      	adds	r2, #20
 8001476:	4293      	cmp	r3, r2
 8001478:	d01d      	beq.n	80014b6 <HAL_DMA_Abort_IT+0x72>
 800147a:	3214      	adds	r2, #20
 800147c:	4293      	cmp	r3, r2
 800147e:	d01d      	beq.n	80014bc <HAL_DMA_Abort_IT+0x78>
 8001480:	3214      	adds	r2, #20
 8001482:	4293      	cmp	r3, r2
 8001484:	d01d      	beq.n	80014c2 <HAL_DMA_Abort_IT+0x7e>
 8001486:	3214      	adds	r2, #20
 8001488:	4293      	cmp	r3, r2
 800148a:	bf14      	ite	ne
 800148c:	f04f 7380 	movne.w	r3, #16777216	@ 0x1000000
 8001490:	f44f 1380 	moveq.w	r3, #1048576	@ 0x100000
 8001494:	4a0d      	ldr	r2, [pc, #52]	@ (80014cc <HAL_DMA_Abort_IT+0x88>)
 8001496:	6053      	str	r3, [r2, #4]
 8001498:	2301      	movs	r3, #1
 800149a:	f880 3021 	strb.w	r3, [r0, #33]	@ 0x21
 800149e:	2300      	movs	r3, #0
 80014a0:	f880 3020 	strb.w	r3, [r0, #32]
 80014a4:	6b43      	ldr	r3, [r0, #52]	@ 0x34
 80014a6:	b103      	cbz	r3, 80014aa <HAL_DMA_Abort_IT+0x66>
 80014a8:	4798      	blx	r3
 80014aa:	2000      	movs	r0, #0
 80014ac:	e7d2      	b.n	8001454 <HAL_DMA_Abort_IT+0x10>
 80014ae:	2301      	movs	r3, #1
 80014b0:	e7f0      	b.n	8001494 <HAL_DMA_Abort_IT+0x50>
 80014b2:	2310      	movs	r3, #16
 80014b4:	e7ee      	b.n	8001494 <HAL_DMA_Abort_IT+0x50>
 80014b6:	f44f 7380 	mov.w	r3, #256	@ 0x100
 80014ba:	e7eb      	b.n	8001494 <HAL_DMA_Abort_IT+0x50>
 80014bc:	f44f 5380 	mov.w	r3, #4096	@ 0x1000
 80014c0:	e7e8      	b.n	8001494 <HAL_DMA_Abort_IT+0x50>
 80014c2:	f44f 3380 	mov.w	r3, #65536	@ 0x10000
 80014c6:	e7e5      	b.n	8001494 <HAL_DMA_Abort_IT+0x50>
 80014c8:	40020008 	.word	0x40020008
 80014cc:	40020000 	.word	0x40020000

080014d0 <HAL_DMA_GetState>:
 80014d0:	f890 0021 	ldrb.w	r0, [r0, #33]	@ 0x21
 80014d4:	4770      	bx	lr
	...

080014d8 <HAL_GPIO_Init>:
 80014d8:	e92d 4ff7 	stmdb	sp!, {r0, r1, r2, r4, r5, r6, r7, r8, r9, sl, fp, lr}
 80014dc:	2400      	movs	r4, #0
 80014de:	f04f 0e0f 	mov.w	lr, #15
 80014e2:	4626      	mov	r6, r4
 80014e4:	f8df c184 	ldr.w	ip, [pc, #388]	@ 800166c <HAL_GPIO_Init+0x194>
 80014e8:	4b61      	ldr	r3, [pc, #388]	@ (8001670 <HAL_GPIO_Init+0x198>)
 80014ea:	f100 0804 	add.w	r8, r0, #4
 80014ee:	680a      	ldr	r2, [r1, #0]
 80014f0:	fa32 f506 	lsrs.w	r5, r2, r6
 80014f4:	d102      	bne.n	80014fc <HAL_GPIO_Init+0x24>
 80014f6:	b003      	add	sp, #12
 80014f8:	e8bd 8ff0 	ldmia.w	sp!, {r4, r5, r6, r7, r8, r9, sl, fp, pc}
 80014fc:	2501      	movs	r5, #1
 80014fe:	fa05 f706 	lsl.w	r7, r5, r6
 8001502:	ea02 0507 	and.w	r5, r2, r7
 8001506:	ea37 0202 	bics.w	r2, r7, r2
 800150a:	d176      	bne.n	80015fa <HAL_GPIO_Init+0x122>
 800150c:	684a      	ldr	r2, [r1, #4]
 800150e:	2a03      	cmp	r2, #3
 8001510:	d807      	bhi.n	8001522 <HAL_GPIO_Init+0x4a>
 8001512:	3a01      	subs	r2, #1
 8001514:	2a02      	cmp	r2, #2
 8001516:	f200 8083 	bhi.w	8001620 <HAL_GPIO_Init+0x148>
 800151a:	e8df f002 	tbb	[pc, r2]
 800151e:	9691      	.short	0x9691
 8001520:	9c          	.byte	0x9c
 8001521:	00          	.byte	0x00
 8001522:	2a12      	cmp	r2, #18
 8001524:	f000 8094 	beq.w	8001650 <HAL_GPIO_Init+0x178>
 8001528:	d869      	bhi.n	80015fe <HAL_GPIO_Init+0x126>
 800152a:	2a11      	cmp	r2, #17
 800152c:	f000 808a 	beq.w	8001644 <HAL_GPIO_Init+0x16c>
 8001530:	2dff      	cmp	r5, #255	@ 0xff
 8001532:	bf94      	ite	ls
 8001534:	4681      	movls	r9, r0
 8001536:	46c1      	movhi	r9, r8
 8001538:	ea4f 0286 	mov.w	r2, r6, lsl #2
 800153c:	f8d9 7000 	ldr.w	r7, [r9]
 8001540:	bf88      	it	hi
 8001542:	3a20      	subhi	r2, #32
 8001544:	fa0e fa02 	lsl.w	sl, lr, r2
 8001548:	ea27 070a 	bic.w	r7, r7, sl
 800154c:	fa04 f202 	lsl.w	r2, r4, r2
 8001550:	4317      	orrs	r7, r2
 8001552:	f8c9 7000 	str.w	r7, [r9]
 8001556:	f8d1 9004 	ldr.w	r9, [r1, #4]
 800155a:	f019 5f80 	tst.w	r9, #268435456	@ 0x10000000
 800155e:	d04c      	beq.n	80015fa <HAL_GPIO_Init+0x122>
 8001560:	f8dc 2018 	ldr.w	r2, [ip, #24]
 8001564:	f026 0703 	bic.w	r7, r6, #3
 8001568:	f042 0201 	orr.w	r2, r2, #1
 800156c:	f8cc 2018 	str.w	r2, [ip, #24]
 8001570:	f8dc 2018 	ldr.w	r2, [ip, #24]
 8001574:	f107 4780 	add.w	r7, r7, #1073741824	@ 0x40000000
 8001578:	f002 0201 	and.w	r2, r2, #1
 800157c:	9201      	str	r2, [sp, #4]
 800157e:	f507 3780 	add.w	r7, r7, #65536	@ 0x10000
 8001582:	f006 0a03 	and.w	sl, r6, #3
 8001586:	9a01      	ldr	r2, [sp, #4]
 8001588:	ea4f 0a8a 	mov.w	sl, sl, lsl #2
 800158c:	68ba      	ldr	r2, [r7, #8]
 800158e:	fa0e fb0a 	lsl.w	fp, lr, sl
 8001592:	ea22 0b0b 	bic.w	fp, r2, fp
 8001596:	4a37      	ldr	r2, [pc, #220]	@ (8001674 <HAL_GPIO_Init+0x19c>)
 8001598:	4290      	cmp	r0, r2
 800159a:	d060      	beq.n	800165e <HAL_GPIO_Init+0x186>
 800159c:	f502 6280 	add.w	r2, r2, #1024	@ 0x400
 80015a0:	4290      	cmp	r0, r2
 80015a2:	d05e      	beq.n	8001662 <HAL_GPIO_Init+0x18a>
 80015a4:	f502 6280 	add.w	r2, r2, #1024	@ 0x400
 80015a8:	4290      	cmp	r0, r2
 80015aa:	d05c      	beq.n	8001666 <HAL_GPIO_Init+0x18e>
 80015ac:	f502 6280 	add.w	r2, r2, #1024	@ 0x400
 80015b0:	4290      	cmp	r0, r2
 80015b2:	bf14      	ite	ne
 80015b4:	2204      	movne	r2, #4
 80015b6:	2203      	moveq	r2, #3
 80015b8:	fa02 f20a 	lsl.w	r2, r2, sl
 80015bc:	ea42 020b 	orr.w	r2, r2, fp
 80015c0:	60ba      	str	r2, [r7, #8]
 80015c2:	689a      	ldr	r2, [r3, #8]
 80015c4:	f419 1f80 	tst.w	r9, #1048576	@ 0x100000
 80015c8:	bf14      	ite	ne
 80015ca:	432a      	orrne	r2, r5
 80015cc:	43aa      	biceq	r2, r5
 80015ce:	609a      	str	r2, [r3, #8]
 80015d0:	68da      	ldr	r2, [r3, #12]
 80015d2:	f419 1f00 	tst.w	r9, #2097152	@ 0x200000
 80015d6:	bf14      	ite	ne
 80015d8:	432a      	orrne	r2, r5
 80015da:	43aa      	biceq	r2, r5
 80015dc:	60da      	str	r2, [r3, #12]
 80015de:	685a      	ldr	r2, [r3, #4]
 80015e0:	f419 3f00 	tst.w	r9, #131072	@ 0x20000
 80015e4:	bf14      	ite	ne
 80015e6:	432a      	orrne	r2, r5
 80015e8:	43aa      	biceq	r2, r5
 80015ea:	605a      	str	r2, [r3, #4]
 80015ec:	681a      	ldr	r2, [r3, #0]
 80015ee:	f419 3f80 	tst.w	r9, #65536	@ 0x10000
 80015f2:	bf14      	ite	ne
 80015f4:	432a      	orrne	r2, r5
 80015f6:	43aa      	biceq	r2, r5
 80015f8:	601a      	str	r2, [r3, #0]
 80015fa:	3601      	adds	r6, #1
 80015fc:	e777      	b.n	80014ee <HAL_GPIO_Init+0x16>
 80015fe:	f8df 9078 	ldr.w	r9, [pc, #120]	@ 8001678 <HAL_GPIO_Init+0x1a0>
 8001602:	454a      	cmp	r2, r9
 8001604:	d00c      	beq.n	8001620 <HAL_GPIO_Init+0x148>
 8001606:	d814      	bhi.n	8001632 <HAL_GPIO_Init+0x15a>
 8001608:	f5a9 1980 	sub.w	r9, r9, #1048576	@ 0x100000
 800160c:	454a      	cmp	r2, r9
 800160e:	d007      	beq.n	8001620 <HAL_GPIO_Init+0x148>
 8001610:	f509 2970 	add.w	r9, r9, #983040	@ 0xf0000
 8001614:	454a      	cmp	r2, r9
 8001616:	d003      	beq.n	8001620 <HAL_GPIO_Init+0x148>
 8001618:	f5a9 1980 	sub.w	r9, r9, #1048576	@ 0x100000
 800161c:	454a      	cmp	r2, r9
 800161e:	d187      	bne.n	8001530 <HAL_GPIO_Init+0x58>
 8001620:	688a      	ldr	r2, [r1, #8]
 8001622:	b1d2      	cbz	r2, 800165a <HAL_GPIO_Init+0x182>
 8001624:	2a01      	cmp	r2, #1
 8001626:	f04f 0408 	mov.w	r4, #8
 800162a:	bf0c      	ite	eq
 800162c:	6107      	streq	r7, [r0, #16]
 800162e:	6147      	strne	r7, [r0, #20]
 8001630:	e77e      	b.n	8001530 <HAL_GPIO_Init+0x58>
 8001632:	f8df 9048 	ldr.w	r9, [pc, #72]	@ 800167c <HAL_GPIO_Init+0x1a4>
 8001636:	454a      	cmp	r2, r9
 8001638:	d0f2      	beq.n	8001620 <HAL_GPIO_Init+0x148>
 800163a:	f509 3980 	add.w	r9, r9, #65536	@ 0x10000
 800163e:	e7ed      	b.n	800161c <HAL_GPIO_Init+0x144>
 8001640:	68cc      	ldr	r4, [r1, #12]
 8001642:	e775      	b.n	8001530 <HAL_GPIO_Init+0x58>
 8001644:	68cc      	ldr	r4, [r1, #12]
 8001646:	3404      	adds	r4, #4
 8001648:	e772      	b.n	8001530 <HAL_GPIO_Init+0x58>
 800164a:	68cc      	ldr	r4, [r1, #12]
 800164c:	3408      	adds	r4, #8
 800164e:	e76f      	b.n	8001530 <HAL_GPIO_Init+0x58>
 8001650:	68cc      	ldr	r4, [r1, #12]
 8001652:	340c      	adds	r4, #12
 8001654:	e76c      	b.n	8001530 <HAL_GPIO_Init+0x58>
 8001656:	2400      	movs	r4, #0
 8001658:	e76a      	b.n	8001530 <HAL_GPIO_Init+0x58>
 800165a:	2404      	movs	r4, #4
 800165c:	e768      	b.n	8001530 <HAL_GPIO_Init+0x58>
 800165e:	2200      	movs	r2, #0
 8001660:	e7aa      	b.n	80015b8 <HAL_GPIO_Init+0xe0>
 8001662:	2201      	movs	r2, #1
 8001664:	e7a8      	b.n	80015b8 <HAL_GPIO_Init+0xe0>
 8001666:	2202      	movs	r2, #2
 8001668:	e7a6      	b.n	80015b8 <HAL_GPIO_Init+0xe0>
 800166a:	bf00      	nop
 800166c:	40021000 	.word	0x40021000
 8001670:	40010400 	.word	0x40010400
 8001674:	40010800 	.word	0x40010800
 8001678:	10220000 	.word	0x10220000
 800167c:	10310000 	.word	0x10310000

08001680 <HAL_GPIO_WritePin>:
 8001680:	b10a      	cbz	r2, 8001686 <HAL_GPIO_WritePin+0x6>
 8001682:	6101      	str	r1, [r0, #16]
 8001684:	4770      	bx	lr
 8001686:	0409      	lsls	r1, r1, #16
 8001688:	e7fb      	b.n	8001682 <HAL_GPIO_WritePin+0x2>

0800168a <I2C_IsAcknowledgeFailed>:
 800168a:	6801      	ldr	r1, [r0, #0]
 800168c:	2200      	movs	r2, #0
 800168e:	694b      	ldr	r3, [r1, #20]
 8001690:	f413 6380 	ands.w	r3, r3, #1024	@ 0x400
 8001694:	d010      	beq.n	80016b8 <I2C_IsAcknowledgeFailed+0x2e>
 8001696:	f46f 6380 	mvn.w	r3, #1024	@ 0x400
 800169a:	614b      	str	r3, [r1, #20]
 800169c:	2320      	movs	r3, #32
 800169e:	6302      	str	r2, [r0, #48]	@ 0x30
 80016a0:	f880 303d 	strb.w	r3, [r0, #61]	@ 0x3d
 80016a4:	f880 203e 	strb.w	r2, [r0, #62]	@ 0x3e
 80016a8:	6c03      	ldr	r3, [r0, #64]	@ 0x40
 80016aa:	f880 203c 	strb.w	r2, [r0, #60]	@ 0x3c
 80016ae:	f043 0304 	orr.w	r3, r3, #4
 80016b2:	6403      	str	r3, [r0, #64]	@ 0x40
 80016b4:	2001      	movs	r0, #1
 80016b6:	4770      	bx	lr
 80016b8:	4618      	mov	r0, r3
 80016ba:	4770      	bx	lr

080016bc <I2C_WaitOnFlagUntilTimeout>:
 80016bc:	e92d 46f8 	stmdb	sp!, {r3, r4, r5, r6, r7, r9, sl, lr}
 80016c0:	4606      	mov	r6, r0
 80016c2:	460f      	mov	r7, r1
 80016c4:	4691      	mov	r9, r2
 80016c6:	461d      	mov	r5, r3
 80016c8:	ea4f 4a11 	mov.w	sl, r1, lsr #16
 80016cc:	6833      	ldr	r3, [r6, #0]
 80016ce:	f1ba 0f01 	cmp.w	sl, #1
 80016d2:	d139      	bne.n	8001748 <I2C_WaitOnFlagUntilTimeout+0x8c>
 80016d4:	695c      	ldr	r4, [r3, #20]
 80016d6:	ea27 0404 	bic.w	r4, r7, r4
 80016da:	b2a4      	uxth	r4, r4
 80016dc:	fab4 f484 	clz	r4, r4
 80016e0:	0964      	lsrs	r4, r4, #5
 80016e2:	45a1      	cmp	r9, r4
 80016e4:	d001      	beq.n	80016ea <I2C_WaitOnFlagUntilTimeout+0x2e>
 80016e6:	2000      	movs	r0, #0
 80016e8:	e024      	b.n	8001734 <I2C_WaitOnFlagUntilTimeout+0x78>
 80016ea:	1c6a      	adds	r2, r5, #1
 80016ec:	d0ef      	beq.n	80016ce <I2C_WaitOnFlagUntilTimeout+0x12>
 80016ee:	f7ff fceb 	bl	80010c8 <HAL_GetTick>
 80016f2:	9b08      	ldr	r3, [sp, #32]
 80016f4:	1ac0      	subs	r0, r0, r3
 80016f6:	42a8      	cmp	r0, r5
 80016f8:	d801      	bhi.n	80016fe <I2C_WaitOnFlagUntilTimeout+0x42>
 80016fa:	2d00      	cmp	r5, #0
 80016fc:	d1e6      	bne.n	80016cc <I2C_WaitOnFlagUntilTimeout+0x10>
 80016fe:	f1ba 0f01 	cmp.w	sl, #1
 8001702:	6833      	ldr	r3, [r6, #0]
 8001704:	d118      	bne.n	8001738 <I2C_WaitOnFlagUntilTimeout+0x7c>
 8001706:	695b      	ldr	r3, [r3, #20]
 8001708:	ea27 0303 	bic.w	r3, r7, r3
 800170c:	b29b      	uxth	r3, r3
 800170e:	fab3 f383 	clz	r3, r3
 8001712:	095b      	lsrs	r3, r3, #5
 8001714:	4599      	cmp	r9, r3
 8001716:	d1d9      	bne.n	80016cc <I2C_WaitOnFlagUntilTimeout+0x10>
 8001718:	2300      	movs	r3, #0
 800171a:	2220      	movs	r2, #32
 800171c:	2001      	movs	r0, #1
 800171e:	6333      	str	r3, [r6, #48]	@ 0x30
 8001720:	f886 203d 	strb.w	r2, [r6, #61]	@ 0x3d
 8001724:	f886 303e 	strb.w	r3, [r6, #62]	@ 0x3e
 8001728:	6c32      	ldr	r2, [r6, #64]	@ 0x40
 800172a:	f886 303c 	strb.w	r3, [r6, #60]	@ 0x3c
 800172e:	f042 0220 	orr.w	r2, r2, #32
 8001732:	6432      	str	r2, [r6, #64]	@ 0x40
 8001734:	e8bd 86f8 	ldmia.w	sp!, {r3, r4, r5, r6, r7, r9, sl, pc}
 8001738:	699b      	ldr	r3, [r3, #24]
 800173a:	43db      	mvns	r3, r3
 800173c:	f3c3 0340 	ubfx	r3, r3, #1, #1
 8001740:	f083 0301 	eor.w	r3, r3, #1
 8001744:	b2db      	uxtb	r3, r3
 8001746:	e7e5      	b.n	8001714 <I2C_WaitOnFlagUntilTimeout+0x58>
 8001748:	699c      	ldr	r4, [r3, #24]
 800174a:	43e4      	mvns	r4, r4
 800174c:	f3c4 0440 	ubfx	r4, r4, #1, #1
 8001750:	f084 0401 	eor.w	r4, r4, #1
 8001754:	b2e4      	uxtb	r4, r4
 8001756:	e7c4      	b.n	80016e2 <I2C_WaitOnFlagUntilTimeout+0x26>

08001758 <I2C_WaitOnMasterAddressFlagUntilTimeout>:
 8001758:	e92d 41f0 	stmdb	sp!, {r4, r5, r6, r7, r8, lr}
 800175c:	4604      	mov	r4, r0
 800175e:	460f      	mov	r7, r1
 8001760:	4616      	mov	r6, r2
 8001762:	4698      	mov	r8, r3
 8001764:	6825      	ldr	r5, [r4, #0]
 8001766:	6968      	ldr	r0, [r5, #20]
 8001768:	ea27 0000 	bic.w	r0, r7, r0
 800176c:	b280      	uxth	r0, r0
 800176e:	b1c0      	cbz	r0, 80017a2 <I2C_WaitOnMasterAddressFlagUntilTimeout+0x4a>
 8001770:	696b      	ldr	r3, [r5, #20]
 8001772:	055a      	lsls	r2, r3, #21
 8001774:	d517      	bpl.n	80017a6 <I2C_WaitOnMasterAddressFlagUntilTimeout+0x4e>
 8001776:	682b      	ldr	r3, [r5, #0]
 8001778:	2220      	movs	r2, #32
 800177a:	f443 7300 	orr.w	r3, r3, #512	@ 0x200
 800177e:	602b      	str	r3, [r5, #0]
 8001780:	f46f 6380 	mvn.w	r3, #1024	@ 0x400
 8001784:	616b      	str	r3, [r5, #20]
 8001786:	2300      	movs	r3, #0
 8001788:	6323      	str	r3, [r4, #48]	@ 0x30
 800178a:	f884 203d 	strb.w	r2, [r4, #61]	@ 0x3d
 800178e:	f884 303e 	strb.w	r3, [r4, #62]	@ 0x3e
 8001792:	6c23      	ldr	r3, [r4, #64]	@ 0x40
 8001794:	f043 0304 	orr.w	r3, r3, #4
 8001798:	6423      	str	r3, [r4, #64]	@ 0x40
 800179a:	2300      	movs	r3, #0
 800179c:	2001      	movs	r0, #1
 800179e:	f884 303c 	strb.w	r3, [r4, #60]	@ 0x3c
 80017a2:	e8bd 81f0 	ldmia.w	sp!, {r4, r5, r6, r7, r8, pc}
 80017a6:	1c73      	adds	r3, r6, #1
 80017a8:	d0dd      	beq.n	8001766 <I2C_WaitOnMasterAddressFlagUntilTimeout+0xe>
 80017aa:	f7ff fc8d 	bl	80010c8 <HAL_GetTick>
 80017ae:	eba0 0008 	sub.w	r0, r0, r8
 80017b2:	42b0      	cmp	r0, r6
 80017b4:	d801      	bhi.n	80017ba <I2C_WaitOnMasterAddressFlagUntilTimeout+0x62>
 80017b6:	2e00      	cmp	r6, #0
 80017b8:	d1d4      	bne.n	8001764 <I2C_WaitOnMasterAddressFlagUntilTimeout+0xc>
 80017ba:	6823      	ldr	r3, [r4, #0]
 80017bc:	695a      	ldr	r2, [r3, #20]
 80017be:	ea27 0202 	bic.w	r2, r7, r2
 80017c2:	b292      	uxth	r2, r2
 80017c4:	2a00      	cmp	r2, #0
 80017c6:	d0cd      	beq.n	8001764 <I2C_WaitOnMasterAddressFlagUntilTimeout+0xc>
 80017c8:	2300      	movs	r3, #0
 80017ca:	2220      	movs	r2, #32
 80017cc:	6323      	str	r3, [r4, #48]	@ 0x30
 80017ce:	f884 203d 	strb.w	r2, [r4, #61]	@ 0x3d
 80017d2:	f884 303e 	strb.w	r3, [r4, #62]	@ 0x3e
 80017d6:	6c23      	ldr	r3, [r4, #64]	@ 0x40
 80017d8:	4313      	orrs	r3, r2
 80017da:	e7dd      	b.n	8001798 <I2C_WaitOnMasterAddressFlagUntilTimeout+0x40>

080017dc <I2C_WaitOnTXEFlagUntilTimeout>:
 80017dc:	b570      	push	{r4, r5, r6, lr}
 80017de:	4604      	mov	r4, r0
 80017e0:	460d      	mov	r5, r1
 80017e2:	4616      	mov	r6, r2
 80017e4:	6823      	ldr	r3, [r4, #0]
 80017e6:	695b      	ldr	r3, [r3, #20]
 80017e8:	061b      	lsls	r3, r3, #24
 80017ea:	d501      	bpl.n	80017f0 <I2C_WaitOnTXEFlagUntilTimeout+0x14>
 80017ec:	2000      	movs	r0, #0
 80017ee:	e01e      	b.n	800182e <I2C_WaitOnTXEFlagUntilTimeout+0x52>
 80017f0:	4620      	mov	r0, r4
 80017f2:	f7ff ff4a 	bl	800168a <I2C_IsAcknowledgeFailed>
 80017f6:	b9c8      	cbnz	r0, 800182c <I2C_WaitOnTXEFlagUntilTimeout+0x50>
 80017f8:	1c6a      	adds	r2, r5, #1
 80017fa:	d0f3      	beq.n	80017e4 <I2C_WaitOnTXEFlagUntilTimeout+0x8>
 80017fc:	f7ff fc64 	bl	80010c8 <HAL_GetTick>
 8001800:	1b80      	subs	r0, r0, r6
 8001802:	42a8      	cmp	r0, r5
 8001804:	d801      	bhi.n	800180a <I2C_WaitOnTXEFlagUntilTimeout+0x2e>
 8001806:	2d00      	cmp	r5, #0
 8001808:	d1ec      	bne.n	80017e4 <I2C_WaitOnTXEFlagUntilTimeout+0x8>
 800180a:	6823      	ldr	r3, [r4, #0]
 800180c:	695b      	ldr	r3, [r3, #20]
 800180e:	f013 0380 	ands.w	r3, r3, #128	@ 0x80
 8001812:	d1e7      	bne.n	80017e4 <I2C_WaitOnTXEFlagUntilTimeout+0x8>
 8001814:	2220      	movs	r2, #32
 8001816:	6323      	str	r3, [r4, #48]	@ 0x30
 8001818:	f884 203d 	strb.w	r2, [r4, #61]	@ 0x3d
 800181c:	f884 303e 	strb.w	r3, [r4, #62]	@ 0x3e
 8001820:	6c22      	ldr	r2, [r4, #64]	@ 0x40
 8001822:	f884 303c 	strb.w	r3, [r4, #60]	@ 0x3c
 8001826:	f042 0220 	orr.w	r2, r2, #32
 800182a:	6422      	str	r2, [r4, #64]	@ 0x40
 800182c:	2001      	movs	r0, #1
 800182e:	bd70      	pop	{r4, r5, r6, pc}

08001830 <I2C_WaitOnBTFFlagUntilTimeout>:
 8001830:	b570      	push	{r4, r5, r6, lr}
 8001832:	4604      	mov	r4, r0
 8001834:	460d      	mov	r5, r1
 8001836:	4616      	mov	r6, r2
 8001838:	6823      	ldr	r3, [r4, #0]
 800183a:	695b      	ldr	r3, [r3, #20]
 800183c:	075b      	lsls	r3, r3, #29
 800183e:	d501      	bpl.n	8001844 <I2C_WaitOnBTFFlagUntilTimeout+0x14>
 8001840:	2000      	movs	r0, #0
 8001842:	e01e      	b.n	8001882 <I2C_WaitOnBTFFlagUntilTimeout+0x52>
 8001844:	4620      	mov	r0, r4
 8001846:	f7ff ff20 	bl	800168a <I2C_IsAcknowledgeFailed>
 800184a:	b9c8      	cbnz	r0, 8001880 <I2C_WaitOnBTFFlagUntilTimeout+0x50>
 800184c:	1c6a      	adds	r2, r5, #1
 800184e:	d0f3      	beq.n	8001838 <I2C_WaitOnBTFFlagUntilTimeout+0x8>
 8001850:	f7ff fc3a 	bl	80010c8 <HAL_GetTick>
 8001854:	1b80      	subs	r0, r0, r6
 8001856:	42a8      	cmp	r0, r5
 8001858:	d801      	bhi.n	800185e <I2C_WaitOnBTFFlagUntilTimeout+0x2e>
 800185a:	2d00      	cmp	r5, #0
 800185c:	d1ec      	bne.n	8001838 <I2C_WaitOnBTFFlagUntilTimeout+0x8>
 800185e:	6823      	ldr	r3, [r4, #0]
 8001860:	695b      	ldr	r3, [r3, #20]
 8001862:	f013 0304 	ands.w	r3, r3, #4
 8001866:	d1e7      	bne.n	8001838 <I2C_WaitOnBTFFlagUntilTimeout+0x8>
 8001868:	2220      	movs	r2, #32
 800186a:	6323      	str	r3, [r4, #48]	@ 0x30
 800186c:	f884 203d 	strb.w	r2, [r4, #61]	@ 0x3d
 8001870:	f884 303e 	strb.w	r3, [r4, #62]	@ 0x3e
 8001874:	6c22      	ldr	r2, [r4, #64]	@ 0x40
 8001876:	f884 303c 	strb.w	r3, [r4, #60]	@ 0x3c
 800187a:	f042 0220 	orr.w	r2, r2, #32
 800187e:	6422      	str	r2, [r4, #64]	@ 0x40
 8001880:	2001      	movs	r0, #1
 8001882:	bd70      	pop	{r4, r5, r6, pc}

08001884 <HAL_I2C_Init>:
 8001884:	b570      	push	{r4, r5, r6, lr}
 8001886:	4604      	mov	r4, r0
 8001888:	b908      	cbnz	r0, 800188e <HAL_I2C_Init+0xa>
 800188a:	2001      	movs	r0, #1
 800188c:	bd70      	pop	{r4, r5, r6, pc}
 800188e:	f890 303d 	ldrb.w	r3, [r0, #61]	@ 0x3d
 8001892:	f003 02ff 	and.w	r2, r3, #255	@ 0xff
 8001896:	b91b      	cbnz	r3, 80018a0 <HAL_I2C_Init+0x1c>
 8001898:	f880 203c 	strb.w	r2, [r0, #60]	@ 0x3c
 800189c:	f7fe fd2c 	bl	80002f8 <HAL_I2C_MspInit>
 80018a0:	2324      	movs	r3, #36	@ 0x24
 80018a2:	f884 303d 	strb.w	r3, [r4, #61]	@ 0x3d
 80018a6:	6823      	ldr	r3, [r4, #0]
 80018a8:	681a      	ldr	r2, [r3, #0]
 80018aa:	f022 0201 	bic.w	r2, r2, #1
 80018ae:	601a      	str	r2, [r3, #0]
 80018b0:	681a      	ldr	r2, [r3, #0]
 80018b2:	f442 4200 	orr.w	r2, r2, #32768	@ 0x8000
 80018b6:	601a      	str	r2, [r3, #0]
 80018b8:	681a      	ldr	r2, [r3, #0]
 80018ba:	f422 4200 	bic.w	r2, r2, #32768	@ 0x8000
 80018be:	601a      	str	r2, [r3, #0]
 80018c0:	f001 fa30 	bl	8002d24 <HAL_RCC_GetPCLK1Freq>
 80018c4:	4b3f      	ldr	r3, [pc, #252]	@ (80019c4 <HAL_I2C_Init+0x140>)
 80018c6:	6865      	ldr	r5, [r4, #4]
 80018c8:	429d      	cmp	r5, r3
 80018ca:	bf94      	ite	ls
 80018cc:	4b3e      	ldrls	r3, [pc, #248]	@ (80019c8 <HAL_I2C_Init+0x144>)
 80018ce:	4b3f      	ldrhi	r3, [pc, #252]	@ (80019cc <HAL_I2C_Init+0x148>)
 80018d0:	4298      	cmp	r0, r3
 80018d2:	bf8c      	ite	hi
 80018d4:	2300      	movhi	r3, #0
 80018d6:	2301      	movls	r3, #1
 80018d8:	2b00      	cmp	r3, #0
 80018da:	d1d6      	bne.n	800188a <HAL_I2C_Init+0x6>
 80018dc:	4e39      	ldr	r6, [pc, #228]	@ (80019c4 <HAL_I2C_Init+0x140>)
 80018de:	4b3c      	ldr	r3, [pc, #240]	@ (80019d0 <HAL_I2C_Init+0x14c>)
 80018e0:	42b5      	cmp	r5, r6
 80018e2:	fbb0 f3f3 	udiv	r3, r0, r3
 80018e6:	bf88      	it	hi
 80018e8:	f44f 7696 	movhi.w	r6, #300	@ 0x12c
 80018ec:	6822      	ldr	r2, [r4, #0]
 80018ee:	6851      	ldr	r1, [r2, #4]
 80018f0:	f021 013f 	bic.w	r1, r1, #63	@ 0x3f
 80018f4:	ea41 0103 	orr.w	r1, r1, r3
 80018f8:	bf82      	ittt	hi
 80018fa:	4373      	mulhi	r3, r6
 80018fc:	f44f 767a 	movhi.w	r6, #1000	@ 0x3e8
 8001900:	fbb3 f3f6 	udivhi	r3, r3, r6
 8001904:	6051      	str	r1, [r2, #4]
 8001906:	6a11      	ldr	r1, [r2, #32]
 8001908:	3301      	adds	r3, #1
 800190a:	f021 013f 	bic.w	r1, r1, #63	@ 0x3f
 800190e:	430b      	orrs	r3, r1
 8001910:	6213      	str	r3, [r2, #32]
 8001912:	69d1      	ldr	r1, [r2, #28]
 8001914:	1e43      	subs	r3, r0, #1
 8001916:	482b      	ldr	r0, [pc, #172]	@ (80019c4 <HAL_I2C_Init+0x140>)
 8001918:	f421 414f 	bic.w	r1, r1, #52992	@ 0xcf00
 800191c:	4285      	cmp	r5, r0
 800191e:	f021 01ff 	bic.w	r1, r1, #255	@ 0xff
 8001922:	d832      	bhi.n	800198a <HAL_I2C_Init+0x106>
 8001924:	006d      	lsls	r5, r5, #1
 8001926:	fbb3 f3f5 	udiv	r3, r3, r5
 800192a:	f640 70fc 	movw	r0, #4092	@ 0xffc
 800192e:	3301      	adds	r3, #1
 8001930:	4203      	tst	r3, r0
 8001932:	d042      	beq.n	80019ba <HAL_I2C_Init+0x136>
 8001934:	f3c3 030b 	ubfx	r3, r3, #0, #12
 8001938:	4319      	orrs	r1, r3
 800193a:	61d1      	str	r1, [r2, #28]
 800193c:	6811      	ldr	r1, [r2, #0]
 800193e:	e9d4 3007 	ldrd	r3, r0, [r4, #28]
 8001942:	f021 01c0 	bic.w	r1, r1, #192	@ 0xc0
 8001946:	4303      	orrs	r3, r0
 8001948:	430b      	orrs	r3, r1
 800194a:	6013      	str	r3, [r2, #0]
 800194c:	6891      	ldr	r1, [r2, #8]
 800194e:	e9d4 0303 	ldrd	r0, r3, [r4, #12]
 8001952:	f421 4103 	bic.w	r1, r1, #33536	@ 0x8300
 8001956:	4303      	orrs	r3, r0
 8001958:	f021 01ff 	bic.w	r1, r1, #255	@ 0xff
 800195c:	430b      	orrs	r3, r1
 800195e:	6093      	str	r3, [r2, #8]
 8001960:	68d1      	ldr	r1, [r2, #12]
 8001962:	e9d4 3005 	ldrd	r3, r0, [r4, #20]
 8001966:	f021 01ff 	bic.w	r1, r1, #255	@ 0xff
 800196a:	4303      	orrs	r3, r0
 800196c:	430b      	orrs	r3, r1
 800196e:	60d3      	str	r3, [r2, #12]
 8001970:	6813      	ldr	r3, [r2, #0]
 8001972:	2000      	movs	r0, #0
 8001974:	f043 0301 	orr.w	r3, r3, #1
 8001978:	6013      	str	r3, [r2, #0]
 800197a:	2320      	movs	r3, #32
 800197c:	6420      	str	r0, [r4, #64]	@ 0x40
 800197e:	f884 303d 	strb.w	r3, [r4, #61]	@ 0x3d
 8001982:	6320      	str	r0, [r4, #48]	@ 0x30
 8001984:	f884 003e 	strb.w	r0, [r4, #62]	@ 0x3e
 8001988:	e780      	b.n	800188c <HAL_I2C_Init+0x8>
 800198a:	68a0      	ldr	r0, [r4, #8]
 800198c:	b950      	cbnz	r0, 80019a4 <HAL_I2C_Init+0x120>
 800198e:	eb05 0545 	add.w	r5, r5, r5, lsl #1
 8001992:	fbb3 f3f5 	udiv	r3, r3, r5
 8001996:	3301      	adds	r3, #1
 8001998:	f3c3 030b 	ubfx	r3, r3, #0, #12
 800199c:	b17b      	cbz	r3, 80019be <HAL_I2C_Init+0x13a>
 800199e:	f443 4300 	orr.w	r3, r3, #32768	@ 0x8000
 80019a2:	e7c9      	b.n	8001938 <HAL_I2C_Init+0xb4>
 80019a4:	2019      	movs	r0, #25
 80019a6:	4368      	muls	r0, r5
 80019a8:	fbb3 f3f0 	udiv	r3, r3, r0
 80019ac:	3301      	adds	r3, #1
 80019ae:	f3c3 030b 	ubfx	r3, r3, #0, #12
 80019b2:	b123      	cbz	r3, 80019be <HAL_I2C_Init+0x13a>
 80019b4:	f443 4340 	orr.w	r3, r3, #49152	@ 0xc000
 80019b8:	e7be      	b.n	8001938 <HAL_I2C_Init+0xb4>
 80019ba:	2304      	movs	r3, #4
 80019bc:	e7bc      	b.n	8001938 <HAL_I2C_Init+0xb4>
 80019be:	2301      	movs	r3, #1
 80019c0:	e7ba      	b.n	8001938 <HAL_I2C_Init+0xb4>
 80019c2:	bf00      	nop
 80019c4:	000186a0 	.word	0x000186a0
 80019c8:	001e847f 	.word	0x001e847f
 80019cc:	003d08ff 	.word	0x003d08ff
 80019d0:	000f4240 	.word	0x000f4240

080019d4 <HAL_I2C_Master_Transmit>:
 80019d4:	e92d 43f0 	stmdb	sp!, {r4, r5, r6, r7, r8, r9, lr}
 80019d8:	4604      	mov	r4, r0
 80019da:	b085      	sub	sp, #20
 80019dc:	4698      	mov	r8, r3
 80019de:	460d      	mov	r5, r1
 80019e0:	4691      	mov	r9, r2
 80019e2:	9f0c      	ldr	r7, [sp, #48]	@ 0x30
 80019e4:	f7ff fb70 	bl	80010c8 <HAL_GetTick>
 80019e8:	f894 303d 	ldrb.w	r3, [r4, #61]	@ 0x3d
 80019ec:	4606      	mov	r6, r0
 80019ee:	2b20      	cmp	r3, #32
 80019f0:	d004      	beq.n	80019fc <HAL_I2C_Master_Transmit+0x28>
 80019f2:	2502      	movs	r5, #2
 80019f4:	4628      	mov	r0, r5
 80019f6:	b005      	add	sp, #20
 80019f8:	e8bd 83f0 	ldmia.w	sp!, {r4, r5, r6, r7, r8, r9, pc}
 80019fc:	9000      	str	r0, [sp, #0]
 80019fe:	2319      	movs	r3, #25
 8001a00:	2201      	movs	r2, #1
 8001a02:	4620      	mov	r0, r4
 8001a04:	495c      	ldr	r1, [pc, #368]	@ (8001b78 <HAL_I2C_Master_Transmit+0x1a4>)
 8001a06:	f7ff fe59 	bl	80016bc <I2C_WaitOnFlagUntilTimeout>
 8001a0a:	2800      	cmp	r0, #0
 8001a0c:	d1f1      	bne.n	80019f2 <HAL_I2C_Master_Transmit+0x1e>
 8001a0e:	f894 303c 	ldrb.w	r3, [r4, #60]	@ 0x3c
 8001a12:	2b01      	cmp	r3, #1
 8001a14:	d0ed      	beq.n	80019f2 <HAL_I2C_Master_Transmit+0x1e>
 8001a16:	2301      	movs	r3, #1
 8001a18:	6821      	ldr	r1, [r4, #0]
 8001a1a:	f884 303c 	strb.w	r3, [r4, #60]	@ 0x3c
 8001a1e:	680b      	ldr	r3, [r1, #0]
 8001a20:	07da      	lsls	r2, r3, #31
 8001a22:	bf5e      	ittt	pl
 8001a24:	680b      	ldrpl	r3, [r1, #0]
 8001a26:	f043 0301 	orrpl.w	r3, r3, #1
 8001a2a:	600b      	strpl	r3, [r1, #0]
 8001a2c:	680b      	ldr	r3, [r1, #0]
 8001a2e:	f423 6300 	bic.w	r3, r3, #2048	@ 0x800
 8001a32:	600b      	str	r3, [r1, #0]
 8001a34:	2321      	movs	r3, #33	@ 0x21
 8001a36:	f884 303d 	strb.w	r3, [r4, #61]	@ 0x3d
 8001a3a:	2310      	movs	r3, #16
 8001a3c:	f884 303e 	strb.w	r3, [r4, #62]	@ 0x3e
 8001a40:	2300      	movs	r3, #0
 8001a42:	6423      	str	r3, [r4, #64]	@ 0x40
 8001a44:	f8a4 802a 	strh.w	r8, [r4, #42]	@ 0x2a
 8001a48:	8d63      	ldrh	r3, [r4, #42]	@ 0x2a
 8001a4a:	f8c4 9024 	str.w	r9, [r4, #36]	@ 0x24
 8001a4e:	8523      	strh	r3, [r4, #40]	@ 0x28
 8001a50:	4b4a      	ldr	r3, [pc, #296]	@ (8001b7c <HAL_I2C_Master_Transmit+0x1a8>)
 8001a52:	62e3      	str	r3, [r4, #44]	@ 0x2c
 8001a54:	6ae3      	ldr	r3, [r4, #44]	@ 0x2c
 8001a56:	2b08      	cmp	r3, #8
 8001a58:	d004      	beq.n	8001a64 <HAL_I2C_Master_Transmit+0x90>
 8001a5a:	2b01      	cmp	r3, #1
 8001a5c:	d002      	beq.n	8001a64 <HAL_I2C_Master_Transmit+0x90>
 8001a5e:	f513 3f80 	cmn.w	r3, #65536	@ 0x10000
 8001a62:	d104      	bne.n	8001a6e <HAL_I2C_Master_Transmit+0x9a>
 8001a64:	680b      	ldr	r3, [r1, #0]
 8001a66:	f443 7380 	orr.w	r3, r3, #256	@ 0x100
 8001a6a:	600b      	str	r3, [r1, #0]
 8001a6c:	e002      	b.n	8001a74 <HAL_I2C_Master_Transmit+0xa0>
 8001a6e:	6b23      	ldr	r3, [r4, #48]	@ 0x30
 8001a70:	2b12      	cmp	r3, #18
 8001a72:	d0f7      	beq.n	8001a64 <HAL_I2C_Master_Transmit+0x90>
 8001a74:	2200      	movs	r2, #0
 8001a76:	463b      	mov	r3, r7
 8001a78:	f04f 1101 	mov.w	r1, #65537	@ 0x10001
 8001a7c:	4620      	mov	r0, r4
 8001a7e:	9600      	str	r6, [sp, #0]
 8001a80:	f7ff fe1c 	bl	80016bc <I2C_WaitOnFlagUntilTimeout>
 8001a84:	6822      	ldr	r2, [r4, #0]
 8001a86:	b140      	cbz	r0, 8001a9a <HAL_I2C_Master_Transmit+0xc6>
 8001a88:	6813      	ldr	r3, [r2, #0]
 8001a8a:	05db      	lsls	r3, r3, #23
 8001a8c:	d401      	bmi.n	8001a92 <HAL_I2C_Master_Transmit+0xbe>
 8001a8e:	2501      	movs	r5, #1
 8001a90:	e7b0      	b.n	80019f4 <HAL_I2C_Master_Transmit+0x20>
 8001a92:	f44f 7300 	mov.w	r3, #512	@ 0x200
 8001a96:	6423      	str	r3, [r4, #64]	@ 0x40
 8001a98:	e7f9      	b.n	8001a8e <HAL_I2C_Master_Transmit+0xba>
 8001a9a:	6923      	ldr	r3, [r4, #16]
 8001a9c:	f5b3 4f80 	cmp.w	r3, #16384	@ 0x4000
 8001aa0:	d121      	bne.n	8001ae6 <HAL_I2C_Master_Transmit+0x112>
 8001aa2:	f005 05fe 	and.w	r5, r5, #254	@ 0xfe
 8001aa6:	6115      	str	r5, [r2, #16]
 8001aa8:	4633      	mov	r3, r6
 8001aaa:	463a      	mov	r2, r7
 8001aac:	4620      	mov	r0, r4
 8001aae:	4934      	ldr	r1, [pc, #208]	@ (8001b80 <HAL_I2C_Master_Transmit+0x1ac>)
 8001ab0:	f7ff fe52 	bl	8001758 <I2C_WaitOnMasterAddressFlagUntilTimeout>
 8001ab4:	4605      	mov	r5, r0
 8001ab6:	2800      	cmp	r0, #0
 8001ab8:	d1e9      	bne.n	8001a8e <HAL_I2C_Master_Transmit+0xba>
 8001aba:	6823      	ldr	r3, [r4, #0]
 8001abc:	9003      	str	r0, [sp, #12]
 8001abe:	695a      	ldr	r2, [r3, #20]
 8001ac0:	9203      	str	r2, [sp, #12]
 8001ac2:	699b      	ldr	r3, [r3, #24]
 8001ac4:	9303      	str	r3, [sp, #12]
 8001ac6:	9b03      	ldr	r3, [sp, #12]
 8001ac8:	8d23      	ldrh	r3, [r4, #40]	@ 0x28
 8001aca:	b9f3      	cbnz	r3, 8001b0a <HAL_I2C_Master_Transmit+0x136>
 8001acc:	6821      	ldr	r1, [r4, #0]
 8001ace:	680a      	ldr	r2, [r1, #0]
 8001ad0:	f442 7200 	orr.w	r2, r2, #512	@ 0x200
 8001ad4:	600a      	str	r2, [r1, #0]
 8001ad6:	2220      	movs	r2, #32
 8001ad8:	f884 303c 	strb.w	r3, [r4, #60]	@ 0x3c
 8001adc:	f884 203d 	strb.w	r2, [r4, #61]	@ 0x3d
 8001ae0:	f884 303e 	strb.w	r3, [r4, #62]	@ 0x3e
 8001ae4:	e786      	b.n	80019f4 <HAL_I2C_Master_Transmit+0x20>
 8001ae6:	11eb      	asrs	r3, r5, #7
 8001ae8:	f003 0306 	and.w	r3, r3, #6
 8001aec:	f043 03f0 	orr.w	r3, r3, #240	@ 0xf0
 8001af0:	6113      	str	r3, [r2, #16]
 8001af2:	4620      	mov	r0, r4
 8001af4:	4633      	mov	r3, r6
 8001af6:	463a      	mov	r2, r7
 8001af8:	4922      	ldr	r1, [pc, #136]	@ (8001b84 <HAL_I2C_Master_Transmit+0x1b0>)
 8001afa:	f7ff fe2d 	bl	8001758 <I2C_WaitOnMasterAddressFlagUntilTimeout>
 8001afe:	2800      	cmp	r0, #0
 8001b00:	d1c5      	bne.n	8001a8e <HAL_I2C_Master_Transmit+0xba>
 8001b02:	6823      	ldr	r3, [r4, #0]
 8001b04:	b2ed      	uxtb	r5, r5
 8001b06:	611d      	str	r5, [r3, #16]
 8001b08:	e7ce      	b.n	8001aa8 <HAL_I2C_Master_Transmit+0xd4>
 8001b0a:	4632      	mov	r2, r6
 8001b0c:	4639      	mov	r1, r7
 8001b0e:	4620      	mov	r0, r4
 8001b10:	f7ff fe64 	bl	80017dc <I2C_WaitOnTXEFlagUntilTimeout>
 8001b14:	b140      	cbz	r0, 8001b28 <HAL_I2C_Master_Transmit+0x154>
 8001b16:	6c23      	ldr	r3, [r4, #64]	@ 0x40
 8001b18:	2b04      	cmp	r3, #4
 8001b1a:	d1b8      	bne.n	8001a8e <HAL_I2C_Master_Transmit+0xba>
 8001b1c:	6822      	ldr	r2, [r4, #0]
 8001b1e:	6813      	ldr	r3, [r2, #0]
 8001b20:	f443 7300 	orr.w	r3, r3, #512	@ 0x200
 8001b24:	6013      	str	r3, [r2, #0]
 8001b26:	e7b2      	b.n	8001a8e <HAL_I2C_Master_Transmit+0xba>
 8001b28:	6a63      	ldr	r3, [r4, #36]	@ 0x24
 8001b2a:	6820      	ldr	r0, [r4, #0]
 8001b2c:	461a      	mov	r2, r3
 8001b2e:	f812 1b01 	ldrb.w	r1, [r2], #1
 8001b32:	6101      	str	r1, [r0, #16]
 8001b34:	6262      	str	r2, [r4, #36]	@ 0x24
 8001b36:	8d62      	ldrh	r2, [r4, #42]	@ 0x2a
 8001b38:	3a01      	subs	r2, #1
 8001b3a:	b292      	uxth	r2, r2
 8001b3c:	8562      	strh	r2, [r4, #42]	@ 0x2a
 8001b3e:	8d22      	ldrh	r2, [r4, #40]	@ 0x28
 8001b40:	f8d0 c014 	ldr.w	ip, [r0, #20]
 8001b44:	1e51      	subs	r1, r2, #1
 8001b46:	b289      	uxth	r1, r1
 8001b48:	f01c 0f04 	tst.w	ip, #4
 8001b4c:	8521      	strh	r1, [r4, #40]	@ 0x28
 8001b4e:	d00a      	beq.n	8001b66 <HAL_I2C_Master_Transmit+0x192>
 8001b50:	b149      	cbz	r1, 8001b66 <HAL_I2C_Master_Transmit+0x192>
 8001b52:	7859      	ldrb	r1, [r3, #1]
 8001b54:	3302      	adds	r3, #2
 8001b56:	6101      	str	r1, [r0, #16]
 8001b58:	6263      	str	r3, [r4, #36]	@ 0x24
 8001b5a:	8d63      	ldrh	r3, [r4, #42]	@ 0x2a
 8001b5c:	3a02      	subs	r2, #2
 8001b5e:	3b01      	subs	r3, #1
 8001b60:	b29b      	uxth	r3, r3
 8001b62:	8563      	strh	r3, [r4, #42]	@ 0x2a
 8001b64:	8522      	strh	r2, [r4, #40]	@ 0x28
 8001b66:	4632      	mov	r2, r6
 8001b68:	4639      	mov	r1, r7
 8001b6a:	4620      	mov	r0, r4
 8001b6c:	f7ff fe60 	bl	8001830 <I2C_WaitOnBTFFlagUntilTimeout>
 8001b70:	2800      	cmp	r0, #0
 8001b72:	d0a9      	beq.n	8001ac8 <HAL_I2C_Master_Transmit+0xf4>
 8001b74:	e7cf      	b.n	8001b16 <HAL_I2C_Master_Transmit+0x142>
 8001b76:	bf00      	nop
 8001b78:	00100002 	.word	0x00100002
 8001b7c:	ffff0000 	.word	0xffff0000
 8001b80:	00010002 	.word	0x00010002
 8001b84:	00010008 	.word	0x00010008

08001b88 <HAL_I2C_IsDeviceReady>:
 8001b88:	e92d 47ff 	stmdb	sp!, {r0, r1, r2, r3, r4, r5, r6, r7, r8, r9, sl, lr}
 8001b8c:	4604      	mov	r4, r0
 8001b8e:	461f      	mov	r7, r3
 8001b90:	4689      	mov	r9, r1
 8001b92:	4692      	mov	sl, r2
 8001b94:	f7ff fa98 	bl	80010c8 <HAL_GetTick>
 8001b98:	f894 303d 	ldrb.w	r3, [r4, #61]	@ 0x3d
 8001b9c:	4605      	mov	r5, r0
 8001b9e:	2b20      	cmp	r3, #32
 8001ba0:	d003      	beq.n	8001baa <HAL_I2C_IsDeviceReady+0x22>
 8001ba2:	2002      	movs	r0, #2
 8001ba4:	b004      	add	sp, #16
 8001ba6:	e8bd 87f0 	ldmia.w	sp!, {r4, r5, r6, r7, r8, r9, sl, pc}
 8001baa:	9000      	str	r0, [sp, #0]
 8001bac:	2319      	movs	r3, #25
 8001bae:	2201      	movs	r2, #1
 8001bb0:	4620      	mov	r0, r4
 8001bb2:	4949      	ldr	r1, [pc, #292]	@ (8001cd8 <HAL_I2C_IsDeviceReady+0x150>)
 8001bb4:	f7ff fd82 	bl	80016bc <I2C_WaitOnFlagUntilTimeout>
 8001bb8:	2800      	cmp	r0, #0
 8001bba:	d1f2      	bne.n	8001ba2 <HAL_I2C_IsDeviceReady+0x1a>
 8001bbc:	f894 303c 	ldrb.w	r3, [r4, #60]	@ 0x3c
 8001bc0:	2b01      	cmp	r3, #1
 8001bc2:	d0ee      	beq.n	8001ba2 <HAL_I2C_IsDeviceReady+0x1a>
 8001bc4:	2301      	movs	r3, #1
 8001bc6:	f884 303c 	strb.w	r3, [r4, #60]	@ 0x3c
 8001bca:	6823      	ldr	r3, [r4, #0]
 8001bcc:	2600      	movs	r6, #0
 8001bce:	681a      	ldr	r2, [r3, #0]
 8001bd0:	f009 09fe 	and.w	r9, r9, #254	@ 0xfe
 8001bd4:	07d2      	lsls	r2, r2, #31
 8001bd6:	bf5e      	ittt	pl
 8001bd8:	681a      	ldrpl	r2, [r3, #0]
 8001bda:	f042 0201 	orrpl.w	r2, r2, #1
 8001bde:	601a      	strpl	r2, [r3, #0]
 8001be0:	681a      	ldr	r2, [r3, #0]
 8001be2:	f422 6200 	bic.w	r2, r2, #2048	@ 0x800
 8001be6:	601a      	str	r2, [r3, #0]
 8001be8:	2324      	movs	r3, #36	@ 0x24
 8001bea:	f884 303d 	strb.w	r3, [r4, #61]	@ 0x3d
 8001bee:	4b3b      	ldr	r3, [pc, #236]	@ (8001cdc <HAL_I2C_IsDeviceReady+0x154>)
 8001bf0:	6426      	str	r6, [r4, #64]	@ 0x40
 8001bf2:	62e3      	str	r3, [r4, #44]	@ 0x2c
 8001bf4:	6822      	ldr	r2, [r4, #0]
 8001bf6:	f04f 1101 	mov.w	r1, #65537	@ 0x10001
 8001bfa:	6813      	ldr	r3, [r2, #0]
 8001bfc:	4620      	mov	r0, r4
 8001bfe:	f443 7380 	orr.w	r3, r3, #256	@ 0x100
 8001c02:	6013      	str	r3, [r2, #0]
 8001c04:	463b      	mov	r3, r7
 8001c06:	2200      	movs	r2, #0
 8001c08:	9500      	str	r5, [sp, #0]
 8001c0a:	f7ff fd57 	bl	80016bc <I2C_WaitOnFlagUntilTimeout>
 8001c0e:	6823      	ldr	r3, [r4, #0]
 8001c10:	b138      	cbz	r0, 8001c22 <HAL_I2C_IsDeviceReady+0x9a>
 8001c12:	681b      	ldr	r3, [r3, #0]
 8001c14:	2003      	movs	r0, #3
 8001c16:	05db      	lsls	r3, r3, #23
 8001c18:	bf44      	itt	mi
 8001c1a:	f44f 7300 	movmi.w	r3, #512	@ 0x200
 8001c1e:	6423      	strmi	r3, [r4, #64]	@ 0x40
 8001c20:	e7c0      	b.n	8001ba4 <HAL_I2C_IsDeviceReady+0x1c>
 8001c22:	f8c3 9010 	str.w	r9, [r3, #16]
 8001c26:	f7ff fa4f 	bl	80010c8 <HAL_GetTick>
 8001c2a:	f04f 08a0 	mov.w	r8, #160	@ 0xa0
 8001c2e:	4605      	mov	r5, r0
 8001c30:	6822      	ldr	r2, [r4, #0]
 8001c32:	6953      	ldr	r3, [r2, #20]
 8001c34:	6952      	ldr	r2, [r2, #20]
 8001c36:	f3c3 0340 	ubfx	r3, r3, #1, #1
 8001c3a:	f3c2 2280 	ubfx	r2, r2, #10, #1
 8001c3e:	f894 103d 	ldrb.w	r1, [r4, #61]	@ 0x3d
 8001c42:	29a0      	cmp	r1, #160	@ 0xa0
 8001c44:	d001      	beq.n	8001c4a <HAL_I2C_IsDeviceReady+0xc2>
 8001c46:	4313      	orrs	r3, r2
 8001c48:	d01d      	beq.n	8001c86 <HAL_I2C_IsDeviceReady+0xfe>
 8001c4a:	f04f 0820 	mov.w	r8, #32
 8001c4e:	6820      	ldr	r0, [r4, #0]
 8001c50:	f884 803d 	strb.w	r8, [r4, #61]	@ 0x3d
 8001c54:	6943      	ldr	r3, [r0, #20]
 8001c56:	f013 0f02 	tst.w	r3, #2
 8001c5a:	6803      	ldr	r3, [r0, #0]
 8001c5c:	f443 7300 	orr.w	r3, r3, #512	@ 0x200
 8001c60:	6003      	str	r3, [r0, #0]
 8001c62:	d025      	beq.n	8001cb0 <HAL_I2C_IsDeviceReady+0x128>
 8001c64:	2300      	movs	r3, #0
 8001c66:	9303      	str	r3, [sp, #12]
 8001c68:	6943      	ldr	r3, [r0, #20]
 8001c6a:	2201      	movs	r2, #1
 8001c6c:	9303      	str	r3, [sp, #12]
 8001c6e:	6983      	ldr	r3, [r0, #24]
 8001c70:	4919      	ldr	r1, [pc, #100]	@ (8001cd8 <HAL_I2C_IsDeviceReady+0x150>)
 8001c72:	9303      	str	r3, [sp, #12]
 8001c74:	9b03      	ldr	r3, [sp, #12]
 8001c76:	4620      	mov	r0, r4
 8001c78:	2319      	movs	r3, #25
 8001c7a:	9500      	str	r5, [sp, #0]
 8001c7c:	f7ff fd1e 	bl	80016bc <I2C_WaitOnFlagUntilTimeout>
 8001c80:	b188      	cbz	r0, 8001ca6 <HAL_I2C_IsDeviceReady+0x11e>
 8001c82:	2001      	movs	r0, #1
 8001c84:	e78e      	b.n	8001ba4 <HAL_I2C_IsDeviceReady+0x1c>
 8001c86:	f7ff fa1f 	bl	80010c8 <HAL_GetTick>
 8001c8a:	1b40      	subs	r0, r0, r5
 8001c8c:	42b8      	cmp	r0, r7
 8001c8e:	d800      	bhi.n	8001c92 <HAL_I2C_IsDeviceReady+0x10a>
 8001c90:	b90f      	cbnz	r7, 8001c96 <HAL_I2C_IsDeviceReady+0x10e>
 8001c92:	f884 803d 	strb.w	r8, [r4, #61]	@ 0x3d
 8001c96:	6822      	ldr	r2, [r4, #0]
 8001c98:	6953      	ldr	r3, [r2, #20]
 8001c9a:	6952      	ldr	r2, [r2, #20]
 8001c9c:	f3c3 0340 	ubfx	r3, r3, #1, #1
 8001ca0:	f3c2 2280 	ubfx	r2, r2, #10, #1
 8001ca4:	e7cb      	b.n	8001c3e <HAL_I2C_IsDeviceReady+0xb6>
 8001ca6:	f884 803d 	strb.w	r8, [r4, #61]	@ 0x3d
 8001caa:	f884 003c 	strb.w	r0, [r4, #60]	@ 0x3c
 8001cae:	e779      	b.n	8001ba4 <HAL_I2C_IsDeviceReady+0x1c>
 8001cb0:	f46f 6380 	mvn.w	r3, #1024	@ 0x400
 8001cb4:	2201      	movs	r2, #1
 8001cb6:	6143      	str	r3, [r0, #20]
 8001cb8:	4907      	ldr	r1, [pc, #28]	@ (8001cd8 <HAL_I2C_IsDeviceReady+0x150>)
 8001cba:	2319      	movs	r3, #25
 8001cbc:	4620      	mov	r0, r4
 8001cbe:	9500      	str	r5, [sp, #0]
 8001cc0:	f7ff fcfc 	bl	80016bc <I2C_WaitOnFlagUntilTimeout>
 8001cc4:	2800      	cmp	r0, #0
 8001cc6:	d1dc      	bne.n	8001c82 <HAL_I2C_IsDeviceReady+0xfa>
 8001cc8:	3601      	adds	r6, #1
 8001cca:	4556      	cmp	r6, sl
 8001ccc:	d392      	bcc.n	8001bf4 <HAL_I2C_IsDeviceReady+0x6c>
 8001cce:	f884 803d 	strb.w	r8, [r4, #61]	@ 0x3d
 8001cd2:	f884 003c 	strb.w	r0, [r4, #60]	@ 0x3c
 8001cd6:	e7d4      	b.n	8001c82 <HAL_I2C_IsDeviceReady+0xfa>
 8001cd8:	00100002 	.word	0x00100002
 8001cdc:	ffff0000 	.word	0xffff0000

08001ce0 <HAL_I2C_MasterTxCpltCallback>:
 8001ce0:	4770      	bx	lr

08001ce2 <HAL_I2C_MasterRxCpltCallback>:
 8001ce2:	4770      	bx	lr

08001ce4 <HAL_I2C_SlaveTxCpltCallback>:
 8001ce4:	4770      	bx	lr

08001ce6 <HAL_I2C_SlaveRxCpltCallback>:
 8001ce6:	4770      	bx	lr

08001ce8 <HAL_I2C_AddrCallback>:
 8001ce8:	4770      	bx	lr

08001cea <HAL_I2C_ListenCpltCallback>:
 8001cea:	4770      	bx	lr

08001cec <HAL_I2C_MemTxCpltCallback>:
 8001cec:	4770      	bx	lr

08001cee <I2C_MemoryTransmit_TXE_BTF>:
 8001cee:	f890 203d 	ldrb.w	r2, [r0, #61]	@ 0x3d
 8001cf2:	b508      	push	{r3, lr}
 8001cf4:	6d03      	ldr	r3, [r0, #80]	@ 0x50
 8001cf6:	b2d2      	uxtb	r2, r2
 8001cf8:	b983      	cbnz	r3, 8001d1c <I2C_MemoryTransmit_TXE_BTF+0x2e>
 8001cfa:	6cc3      	ldr	r3, [r0, #76]	@ 0x4c
 8001cfc:	6802      	ldr	r2, [r0, #0]
 8001cfe:	2b01      	cmp	r3, #1
 8001d00:	6c83      	ldr	r3, [r0, #72]	@ 0x48
 8001d02:	d105      	bne.n	8001d10 <I2C_MemoryTransmit_TXE_BTF+0x22>
 8001d04:	b2db      	uxtb	r3, r3
 8001d06:	6113      	str	r3, [r2, #16]
 8001d08:	6d03      	ldr	r3, [r0, #80]	@ 0x50
 8001d0a:	3302      	adds	r3, #2
 8001d0c:	6503      	str	r3, [r0, #80]	@ 0x50
 8001d0e:	bd08      	pop	{r3, pc}
 8001d10:	f3c3 2307 	ubfx	r3, r3, #8, #8
 8001d14:	6113      	str	r3, [r2, #16]
 8001d16:	6d03      	ldr	r3, [r0, #80]	@ 0x50
 8001d18:	3301      	adds	r3, #1
 8001d1a:	e7f7      	b.n	8001d0c <I2C_MemoryTransmit_TXE_BTF+0x1e>
 8001d1c:	6d03      	ldr	r3, [r0, #80]	@ 0x50
 8001d1e:	2b01      	cmp	r3, #1
 8001d20:	d103      	bne.n	8001d2a <I2C_MemoryTransmit_TXE_BTF+0x3c>
 8001d22:	6c83      	ldr	r3, [r0, #72]	@ 0x48
 8001d24:	6802      	ldr	r2, [r0, #0]
 8001d26:	b2db      	uxtb	r3, r3
 8001d28:	e7f4      	b.n	8001d14 <I2C_MemoryTransmit_TXE_BTF+0x26>
 8001d2a:	6d03      	ldr	r3, [r0, #80]	@ 0x50
 8001d2c:	2b02      	cmp	r3, #2
 8001d2e:	d12f      	bne.n	8001d90 <I2C_MemoryTransmit_TXE_BTF+0xa2>
 8001d30:	2a22      	cmp	r2, #34	@ 0x22
 8001d32:	d105      	bne.n	8001d40 <I2C_MemoryTransmit_TXE_BTF+0x52>
 8001d34:	6802      	ldr	r2, [r0, #0]
 8001d36:	6813      	ldr	r3, [r2, #0]
 8001d38:	f443 7380 	orr.w	r3, r3, #256	@ 0x100
 8001d3c:	6013      	str	r3, [r2, #0]
 8001d3e:	e7ea      	b.n	8001d16 <I2C_MemoryTransmit_TXE_BTF+0x28>
 8001d40:	8d43      	ldrh	r3, [r0, #42]	@ 0x2a
 8001d42:	b29b      	uxth	r3, r3
 8001d44:	b163      	cbz	r3, 8001d60 <I2C_MemoryTransmit_TXE_BTF+0x72>
 8001d46:	2a21      	cmp	r2, #33	@ 0x21
 8001d48:	d10a      	bne.n	8001d60 <I2C_MemoryTransmit_TXE_BTF+0x72>
 8001d4a:	6a43      	ldr	r3, [r0, #36]	@ 0x24
 8001d4c:	6802      	ldr	r2, [r0, #0]
 8001d4e:	f813 1b01 	ldrb.w	r1, [r3], #1
 8001d52:	6111      	str	r1, [r2, #16]
 8001d54:	6243      	str	r3, [r0, #36]	@ 0x24
 8001d56:	8d43      	ldrh	r3, [r0, #42]	@ 0x2a
 8001d58:	3b01      	subs	r3, #1
 8001d5a:	b29b      	uxth	r3, r3
 8001d5c:	8543      	strh	r3, [r0, #42]	@ 0x2a
 8001d5e:	e7d6      	b.n	8001d0e <I2C_MemoryTransmit_TXE_BTF+0x20>
 8001d60:	8d43      	ldrh	r3, [r0, #42]	@ 0x2a
 8001d62:	b29b      	uxth	r3, r3
 8001d64:	2b00      	cmp	r3, #0
 8001d66:	d1d2      	bne.n	8001d0e <I2C_MemoryTransmit_TXE_BTF+0x20>
 8001d68:	2a21      	cmp	r2, #33	@ 0x21
 8001d6a:	d1d0      	bne.n	8001d0e <I2C_MemoryTransmit_TXE_BTF+0x20>
 8001d6c:	6802      	ldr	r2, [r0, #0]
 8001d6e:	6851      	ldr	r1, [r2, #4]
 8001d70:	f421 61e0 	bic.w	r1, r1, #1792	@ 0x700
 8001d74:	6051      	str	r1, [r2, #4]
 8001d76:	6811      	ldr	r1, [r2, #0]
 8001d78:	f441 7100 	orr.w	r1, r1, #512	@ 0x200
 8001d7c:	6011      	str	r1, [r2, #0]
 8001d7e:	2220      	movs	r2, #32
 8001d80:	6303      	str	r3, [r0, #48]	@ 0x30
 8001d82:	f880 203d 	strb.w	r2, [r0, #61]	@ 0x3d
 8001d86:	f880 303e 	strb.w	r3, [r0, #62]	@ 0x3e
 8001d8a:	f7ff ffaf 	bl	8001cec <HAL_I2C_MemTxCpltCallback>
 8001d8e:	e7be      	b.n	8001d0e <I2C_MemoryTransmit_TXE_BTF+0x20>
 8001d90:	6803      	ldr	r3, [r0, #0]
 8001d92:	695a      	ldr	r2, [r3, #20]
 8001d94:	0612      	lsls	r2, r2, #24
 8001d96:	bf44      	itt	mi
 8001d98:	2200      	movmi	r2, #0
 8001d9a:	611a      	strmi	r2, [r3, #16]
 8001d9c:	e7b7      	b.n	8001d0e <I2C_MemoryTransmit_TXE_BTF+0x20>

08001d9e <HAL_I2C_MemRxCpltCallback>:
 8001d9e:	4770      	bx	lr

08001da0 <HAL_I2C_ErrorCallback>:
 8001da0:	4770      	bx	lr

08001da2 <HAL_I2C_AbortCpltCallback>:
 8001da2:	4770      	bx	lr

08001da4 <I2C_DMAAbort>:
 8001da4:	2300      	movs	r3, #0
 8001da6:	b537      	push	{r0, r1, r2, r4, r5, lr}
 8001da8:	f246 11a8 	movw	r1, #25000	@ 0x61a8
 8001dac:	9301      	str	r3, [sp, #4]
 8001dae:	4b2c      	ldr	r3, [pc, #176]	@ (8001e60 <I2C_DMAAbort+0xbc>)
 8001db0:	6a40      	ldr	r0, [r0, #36]	@ 0x24
 8001db2:	681b      	ldr	r3, [r3, #0]
 8001db4:	f890 203d 	ldrb.w	r2, [r0, #61]	@ 0x3d
 8001db8:	fbb3 f3f1 	udiv	r3, r3, r1
 8001dbc:	2123      	movs	r1, #35	@ 0x23
 8001dbe:	434b      	muls	r3, r1
 8001dc0:	9301      	str	r3, [sp, #4]
 8001dc2:	6803      	ldr	r3, [r0, #0]
 8001dc4:	b2d2      	uxtb	r2, r2
 8001dc6:	9901      	ldr	r1, [sp, #4]
 8001dc8:	bb41      	cbnz	r1, 8001e1c <I2C_DMAAbort+0x78>
 8001dca:	6c01      	ldr	r1, [r0, #64]	@ 0x40
 8001dcc:	f041 0120 	orr.w	r1, r1, #32
 8001dd0:	6401      	str	r1, [r0, #64]	@ 0x40
 8001dd2:	6b44      	ldr	r4, [r0, #52]	@ 0x34
 8001dd4:	b10c      	cbz	r4, 8001dda <I2C_DMAAbort+0x36>
 8001dd6:	2100      	movs	r1, #0
 8001dd8:	62a1      	str	r1, [r4, #40]	@ 0x28
 8001dda:	6b81      	ldr	r1, [r0, #56]	@ 0x38
 8001ddc:	b109      	cbz	r1, 8001de2 <I2C_DMAAbort+0x3e>
 8001dde:	2500      	movs	r5, #0
 8001de0:	628d      	str	r5, [r1, #40]	@ 0x28
 8001de2:	681d      	ldr	r5, [r3, #0]
 8001de4:	f425 6580 	bic.w	r5, r5, #1024	@ 0x400
 8001de8:	601d      	str	r5, [r3, #0]
 8001dea:	2500      	movs	r5, #0
 8001dec:	8545      	strh	r5, [r0, #42]	@ 0x2a
 8001dee:	b104      	cbz	r4, 8001df2 <I2C_DMAAbort+0x4e>
 8001df0:	6365      	str	r5, [r4, #52]	@ 0x34
 8001df2:	b101      	cbz	r1, 8001df6 <I2C_DMAAbort+0x52>
 8001df4:	634d      	str	r5, [r1, #52]	@ 0x34
 8001df6:	6819      	ldr	r1, [r3, #0]
 8001df8:	f021 0101 	bic.w	r1, r1, #1
 8001dfc:	6019      	str	r1, [r3, #0]
 8001dfe:	f890 103d 	ldrb.w	r1, [r0, #61]	@ 0x3d
 8001e02:	2960      	cmp	r1, #96	@ 0x60
 8001e04:	d111      	bne.n	8001e2a <I2C_DMAAbort+0x86>
 8001e06:	2320      	movs	r3, #32
 8001e08:	f880 303d 	strb.w	r3, [r0, #61]	@ 0x3d
 8001e0c:	2300      	movs	r3, #0
 8001e0e:	f880 303e 	strb.w	r3, [r0, #62]	@ 0x3e
 8001e12:	6403      	str	r3, [r0, #64]	@ 0x40
 8001e14:	f7ff ffc5 	bl	8001da2 <HAL_I2C_AbortCpltCallback>
 8001e18:	b003      	add	sp, #12
 8001e1a:	bd30      	pop	{r4, r5, pc}
 8001e1c:	9901      	ldr	r1, [sp, #4]
 8001e1e:	3901      	subs	r1, #1
 8001e20:	9101      	str	r1, [sp, #4]
 8001e22:	6819      	ldr	r1, [r3, #0]
 8001e24:	0589      	lsls	r1, r1, #22
 8001e26:	d4ce      	bmi.n	8001dc6 <I2C_DMAAbort+0x22>
 8001e28:	e7d3      	b.n	8001dd2 <I2C_DMAAbort+0x2e>
 8001e2a:	f002 0228 	and.w	r2, r2, #40	@ 0x28
 8001e2e:	2a28      	cmp	r2, #40	@ 0x28
 8001e30:	d10e      	bne.n	8001e50 <I2C_DMAAbort+0xac>
 8001e32:	6819      	ldr	r1, [r3, #0]
 8001e34:	f041 0101 	orr.w	r1, r1, #1
 8001e38:	6019      	str	r1, [r3, #0]
 8001e3a:	6819      	ldr	r1, [r3, #0]
 8001e3c:	f441 6180 	orr.w	r1, r1, #1024	@ 0x400
 8001e40:	6019      	str	r1, [r3, #0]
 8001e42:	2300      	movs	r3, #0
 8001e44:	6303      	str	r3, [r0, #48]	@ 0x30
 8001e46:	f880 203d 	strb.w	r2, [r0, #61]	@ 0x3d
 8001e4a:	f7ff ffa9 	bl	8001da0 <HAL_I2C_ErrorCallback>
 8001e4e:	e7e3      	b.n	8001e18 <I2C_DMAAbort+0x74>
 8001e50:	2320      	movs	r3, #32
 8001e52:	f880 303d 	strb.w	r3, [r0, #61]	@ 0x3d
 8001e56:	2300      	movs	r3, #0
 8001e58:	f880 303e 	strb.w	r3, [r0, #62]	@ 0x3e
 8001e5c:	e7f5      	b.n	8001e4a <I2C_DMAAbort+0xa6>
 8001e5e:	bf00      	nop
 8001e60:	20000004 	.word	0x20000004

08001e64 <I2C_ITError>:
 8001e64:	b510      	push	{r4, lr}
 8001e66:	f890 203d 	ldrb.w	r2, [r0, #61]	@ 0x3d
 8001e6a:	f890 303e 	ldrb.w	r3, [r0, #62]	@ 0x3e
 8001e6e:	4604      	mov	r4, r0
 8001e70:	2b10      	cmp	r3, #16
 8001e72:	b2d9      	uxtb	r1, r3
 8001e74:	b2d2      	uxtb	r2, r2
 8001e76:	6803      	ldr	r3, [r0, #0]
 8001e78:	d001      	beq.n	8001e7e <I2C_ITError+0x1a>
 8001e7a:	2940      	cmp	r1, #64	@ 0x40
 8001e7c:	d113      	bne.n	8001ea6 <I2C_ITError+0x42>
 8001e7e:	2a22      	cmp	r2, #34	@ 0x22
 8001e80:	d111      	bne.n	8001ea6 <I2C_ITError+0x42>
 8001e82:	6819      	ldr	r1, [r3, #0]
 8001e84:	f421 6100 	bic.w	r1, r1, #2048	@ 0x800
 8001e88:	6019      	str	r1, [r3, #0]
 8001e8a:	6859      	ldr	r1, [r3, #4]
 8001e8c:	f411 6100 	ands.w	r1, r1, #2048	@ 0x800
 8001e90:	d106      	bne.n	8001ea0 <I2C_ITError+0x3c>
 8001e92:	2a60      	cmp	r2, #96	@ 0x60
 8001e94:	bf1e      	ittt	ne
 8001e96:	2220      	movne	r2, #32
 8001e98:	f884 203d 	strbne.w	r2, [r4, #61]	@ 0x3d
 8001e9c:	f884 103e 	strbne.w	r1, [r4, #62]	@ 0x3e
 8001ea0:	2200      	movs	r2, #0
 8001ea2:	6322      	str	r2, [r4, #48]	@ 0x30
 8001ea4:	e007      	b.n	8001eb6 <I2C_ITError+0x52>
 8001ea6:	f002 0128 	and.w	r1, r2, #40	@ 0x28
 8001eaa:	2928      	cmp	r1, #40	@ 0x28
 8001eac:	d1ed      	bne.n	8001e8a <I2C_ITError+0x26>
 8001eae:	2200      	movs	r2, #0
 8001eb0:	6322      	str	r2, [r4, #48]	@ 0x30
 8001eb2:	f884 103d 	strb.w	r1, [r4, #61]	@ 0x3d
 8001eb6:	685a      	ldr	r2, [r3, #4]
 8001eb8:	f412 6200 	ands.w	r2, r2, #2048	@ 0x800
 8001ebc:	d04f      	beq.n	8001f5e <I2C_ITError+0xfa>
 8001ebe:	685a      	ldr	r2, [r3, #4]
 8001ec0:	6b60      	ldr	r0, [r4, #52]	@ 0x34
 8001ec2:	f422 6200 	bic.w	r2, r2, #2048	@ 0x800
 8001ec6:	605a      	str	r2, [r3, #4]
 8001ec8:	f890 3021 	ldrb.w	r3, [r0, #33]	@ 0x21
 8001ecc:	2b01      	cmp	r3, #1
 8001ece:	4b37      	ldr	r3, [pc, #220]	@ (8001fac <I2C_ITError+0x148>)
 8001ed0:	d02b      	beq.n	8001f2a <I2C_ITError+0xc6>
 8001ed2:	6343      	str	r3, [r0, #52]	@ 0x34
 8001ed4:	f7ff fab6 	bl	8001444 <HAL_DMA_Abort_IT>
 8001ed8:	b150      	cbz	r0, 8001ef0 <I2C_ITError+0x8c>
 8001eda:	6822      	ldr	r2, [r4, #0]
 8001edc:	6b60      	ldr	r0, [r4, #52]	@ 0x34
 8001ede:	6813      	ldr	r3, [r2, #0]
 8001ee0:	f023 0301 	bic.w	r3, r3, #1
 8001ee4:	6013      	str	r3, [r2, #0]
 8001ee6:	2320      	movs	r3, #32
 8001ee8:	f884 303d 	strb.w	r3, [r4, #61]	@ 0x3d
 8001eec:	6b43      	ldr	r3, [r0, #52]	@ 0x34
 8001eee:	4798      	blx	r3
 8001ef0:	6c23      	ldr	r3, [r4, #64]	@ 0x40
 8001ef2:	0719      	lsls	r1, r3, #28
 8001ef4:	bf1f      	itttt	ne
 8001ef6:	6822      	ldrne	r2, [r4, #0]
 8001ef8:	6853      	ldrne	r3, [r2, #4]
 8001efa:	f423 63e0 	bicne.w	r3, r3, #1792	@ 0x700
 8001efe:	6053      	strne	r3, [r2, #4]
 8001f00:	f894 303d 	ldrb.w	r3, [r4, #61]	@ 0x3d
 8001f04:	6c22      	ldr	r2, [r4, #64]	@ 0x40
 8001f06:	b2db      	uxtb	r3, r3
 8001f08:	0752      	lsls	r2, r2, #29
 8001f0a:	d50d      	bpl.n	8001f28 <I2C_ITError+0xc4>
 8001f0c:	2b28      	cmp	r3, #40	@ 0x28
 8001f0e:	d10b      	bne.n	8001f28 <I2C_ITError+0xc4>
 8001f10:	4b27      	ldr	r3, [pc, #156]	@ (8001fb0 <I2C_ITError+0x14c>)
 8001f12:	2220      	movs	r2, #32
 8001f14:	62e3      	str	r3, [r4, #44]	@ 0x2c
 8001f16:	2300      	movs	r3, #0
 8001f18:	4620      	mov	r0, r4
 8001f1a:	6323      	str	r3, [r4, #48]	@ 0x30
 8001f1c:	f884 203d 	strb.w	r2, [r4, #61]	@ 0x3d
 8001f20:	f884 303e 	strb.w	r3, [r4, #62]	@ 0x3e
 8001f24:	f7ff fee1 	bl	8001cea <HAL_I2C_ListenCpltCallback>
 8001f28:	bd10      	pop	{r4, pc}
 8001f2a:	6ba0      	ldr	r0, [r4, #56]	@ 0x38
 8001f2c:	6343      	str	r3, [r0, #52]	@ 0x34
 8001f2e:	f7ff fa89 	bl	8001444 <HAL_DMA_Abort_IT>
 8001f32:	2800      	cmp	r0, #0
 8001f34:	d0dc      	beq.n	8001ef0 <I2C_ITError+0x8c>
 8001f36:	6823      	ldr	r3, [r4, #0]
 8001f38:	695a      	ldr	r2, [r3, #20]
 8001f3a:	0651      	lsls	r1, r2, #25
 8001f3c:	d505      	bpl.n	8001f4a <I2C_ITError+0xe6>
 8001f3e:	691a      	ldr	r2, [r3, #16]
 8001f40:	6a63      	ldr	r3, [r4, #36]	@ 0x24
 8001f42:	701a      	strb	r2, [r3, #0]
 8001f44:	6a63      	ldr	r3, [r4, #36]	@ 0x24
 8001f46:	3301      	adds	r3, #1
 8001f48:	6263      	str	r3, [r4, #36]	@ 0x24
 8001f4a:	6822      	ldr	r2, [r4, #0]
 8001f4c:	6ba0      	ldr	r0, [r4, #56]	@ 0x38
 8001f4e:	6813      	ldr	r3, [r2, #0]
 8001f50:	f023 0301 	bic.w	r3, r3, #1
 8001f54:	6013      	str	r3, [r2, #0]
 8001f56:	2320      	movs	r3, #32
 8001f58:	f884 303d 	strb.w	r3, [r4, #61]	@ 0x3d
 8001f5c:	e7c6      	b.n	8001eec <I2C_ITError+0x88>
 8001f5e:	f894 103d 	ldrb.w	r1, [r4, #61]	@ 0x3d
 8001f62:	2960      	cmp	r1, #96	@ 0x60
 8001f64:	d115      	bne.n	8001f92 <I2C_ITError+0x12e>
 8001f66:	2120      	movs	r1, #32
 8001f68:	f884 103d 	strb.w	r1, [r4, #61]	@ 0x3d
 8001f6c:	6422      	str	r2, [r4, #64]	@ 0x40
 8001f6e:	695a      	ldr	r2, [r3, #20]
 8001f70:	0652      	lsls	r2, r2, #25
 8001f72:	d505      	bpl.n	8001f80 <I2C_ITError+0x11c>
 8001f74:	691a      	ldr	r2, [r3, #16]
 8001f76:	6a63      	ldr	r3, [r4, #36]	@ 0x24
 8001f78:	701a      	strb	r2, [r3, #0]
 8001f7a:	6a63      	ldr	r3, [r4, #36]	@ 0x24
 8001f7c:	3301      	adds	r3, #1
 8001f7e:	6263      	str	r3, [r4, #36]	@ 0x24
 8001f80:	6822      	ldr	r2, [r4, #0]
 8001f82:	4620      	mov	r0, r4
 8001f84:	6813      	ldr	r3, [r2, #0]
 8001f86:	f023 0301 	bic.w	r3, r3, #1
 8001f8a:	6013      	str	r3, [r2, #0]
 8001f8c:	f7ff ff09 	bl	8001da2 <HAL_I2C_AbortCpltCallback>
 8001f90:	e7ae      	b.n	8001ef0 <I2C_ITError+0x8c>
 8001f92:	695a      	ldr	r2, [r3, #20]
 8001f94:	0650      	lsls	r0, r2, #25
 8001f96:	d505      	bpl.n	8001fa4 <I2C_ITError+0x140>
 8001f98:	691a      	ldr	r2, [r3, #16]
 8001f9a:	6a63      	ldr	r3, [r4, #36]	@ 0x24
 8001f9c:	701a      	strb	r2, [r3, #0]
 8001f9e:	6a63      	ldr	r3, [r4, #36]	@ 0x24
 8001fa0:	3301      	adds	r3, #1
 8001fa2:	6263      	str	r3, [r4, #36]	@ 0x24
 8001fa4:	4620      	mov	r0, r4
 8001fa6:	f7ff fefb 	bl	8001da0 <HAL_I2C_ErrorCallback>
 8001faa:	e7a1      	b.n	8001ef0 <I2C_ITError+0x8c>
 8001fac:	08001da5 	.word	0x08001da5
 8001fb0:	ffff0000 	.word	0xffff0000

08001fb4 <HAL_I2C_EV_IRQHandler>:
 8001fb4:	b5f0      	push	{r4, r5, r6, r7, lr}
 8001fb6:	4604      	mov	r4, r0
 8001fb8:	6803      	ldr	r3, [r0, #0]
 8001fba:	b08f      	sub	sp, #60	@ 0x3c
 8001fbc:	685a      	ldr	r2, [r3, #4]
 8001fbe:	6ac6      	ldr	r6, [r0, #44]	@ 0x2c
 8001fc0:	f890 003e 	ldrb.w	r0, [r0, #62]	@ 0x3e
 8001fc4:	f894 103d 	ldrb.w	r1, [r4, #61]	@ 0x3d
 8001fc8:	2810      	cmp	r0, #16
 8001fca:	b2c5      	uxtb	r5, r0
 8001fcc:	b2c9      	uxtb	r1, r1
 8001fce:	d002      	beq.n	8001fd6 <HAL_I2C_EV_IRQHandler+0x22>
 8001fd0:	2d40      	cmp	r5, #64	@ 0x40
 8001fd2:	f040 82e5 	bne.w	80025a0 <HAL_I2C_EV_IRQHandler+0x5ec>
 8001fd6:	699f      	ldr	r7, [r3, #24]
 8001fd8:	6958      	ldr	r0, [r3, #20]
 8001fda:	f010 0f01 	tst.w	r0, #1
 8001fde:	d107      	bne.n	8001ff0 <HAL_I2C_EV_IRQHandler+0x3c>
 8001fe0:	f5b6 0f2a 	cmp.w	r6, #11141120	@ 0xaa0000
 8001fe4:	d002      	beq.n	8001fec <HAL_I2C_EV_IRQHandler+0x38>
 8001fe6:	f1b6 4f2a 	cmp.w	r6, #2852126720	@ 0xaa000000
 8001fea:	d151      	bne.n	8002090 <HAL_I2C_EV_IRQHandler+0xdc>
 8001fec:	b00f      	add	sp, #60	@ 0x3c
 8001fee:	bdf0      	pop	{r4, r5, r6, r7, pc}
 8001ff0:	0596      	lsls	r6, r2, #22
 8001ff2:	d54d      	bpl.n	8002090 <HAL_I2C_EV_IRQHandler+0xdc>
 8001ff4:	6ae2      	ldr	r2, [r4, #44]	@ 0x2c
 8001ff6:	f5b2 0f2a 	cmp.w	r2, #11141120	@ 0xaa0000
 8001ffa:	d10c      	bne.n	8002016 <HAL_I2C_EV_IRQHandler+0x62>
 8001ffc:	2201      	movs	r2, #1
 8001ffe:	62e2      	str	r2, [r4, #44]	@ 0x2c
 8002000:	f894 203e 	ldrb.w	r2, [r4, #62]	@ 0x3e
 8002004:	2a40      	cmp	r2, #64	@ 0x40
 8002006:	d111      	bne.n	800202c <HAL_I2C_EV_IRQHandler+0x78>
 8002008:	6d22      	ldr	r2, [r4, #80]	@ 0x50
 800200a:	b952      	cbnz	r2, 8002022 <HAL_I2C_EV_IRQHandler+0x6e>
 800200c:	6c62      	ldr	r2, [r4, #68]	@ 0x44
 800200e:	f002 02fe 	and.w	r2, r2, #254	@ 0xfe
 8002012:	611a      	str	r2, [r3, #16]
 8002014:	e7ea      	b.n	8001fec <HAL_I2C_EV_IRQHandler+0x38>
 8002016:	6ae2      	ldr	r2, [r4, #44]	@ 0x2c
 8002018:	f1b2 4f2a 	cmp.w	r2, #2852126720	@ 0xaa000000
 800201c:	d1f0      	bne.n	8002000 <HAL_I2C_EV_IRQHandler+0x4c>
 800201e:	2208      	movs	r2, #8
 8002020:	e7ed      	b.n	8001ffe <HAL_I2C_EV_IRQHandler+0x4a>
 8002022:	6c62      	ldr	r2, [r4, #68]	@ 0x44
 8002024:	f042 0201 	orr.w	r2, r2, #1
 8002028:	b2d2      	uxtb	r2, r2
 800202a:	e7f2      	b.n	8002012 <HAL_I2C_EV_IRQHandler+0x5e>
 800202c:	6922      	ldr	r2, [r4, #16]
 800202e:	f5b2 4f80 	cmp.w	r2, #16384	@ 0x4000
 8002032:	d11a      	bne.n	800206a <HAL_I2C_EV_IRQHandler+0xb6>
 8002034:	f894 203d 	ldrb.w	r2, [r4, #61]	@ 0x3d
 8002038:	2a21      	cmp	r2, #33	@ 0x21
 800203a:	6c62      	ldr	r2, [r4, #68]	@ 0x44
 800203c:	d111      	bne.n	8002062 <HAL_I2C_EV_IRQHandler+0xae>
 800203e:	f002 02fe 	and.w	r2, r2, #254	@ 0xfe
 8002042:	611a      	str	r2, [r3, #16]
 8002044:	6b62      	ldr	r2, [r4, #52]	@ 0x34
 8002046:	b10a      	cbz	r2, 800204c <HAL_I2C_EV_IRQHandler+0x98>
 8002048:	6a92      	ldr	r2, [r2, #40]	@ 0x28
 800204a:	b92a      	cbnz	r2, 8002058 <HAL_I2C_EV_IRQHandler+0xa4>
 800204c:	6ba2      	ldr	r2, [r4, #56]	@ 0x38
 800204e:	2a00      	cmp	r2, #0
 8002050:	d0cc      	beq.n	8001fec <HAL_I2C_EV_IRQHandler+0x38>
 8002052:	6a92      	ldr	r2, [r2, #40]	@ 0x28
 8002054:	2a00      	cmp	r2, #0
 8002056:	d0c9      	beq.n	8001fec <HAL_I2C_EV_IRQHandler+0x38>
 8002058:	685a      	ldr	r2, [r3, #4]
 800205a:	f442 6200 	orr.w	r2, r2, #2048	@ 0x800
 800205e:	605a      	str	r2, [r3, #4]
 8002060:	e7c4      	b.n	8001fec <HAL_I2C_EV_IRQHandler+0x38>
 8002062:	f042 0201 	orr.w	r2, r2, #1
 8002066:	b2d2      	uxtb	r2, r2
 8002068:	e7eb      	b.n	8002042 <HAL_I2C_EV_IRQHandler+0x8e>
 800206a:	6d22      	ldr	r2, [r4, #80]	@ 0x50
 800206c:	b932      	cbnz	r2, 800207c <HAL_I2C_EV_IRQHandler+0xc8>
 800206e:	6c62      	ldr	r2, [r4, #68]	@ 0x44
 8002070:	11d2      	asrs	r2, r2, #7
 8002072:	f002 0206 	and.w	r2, r2, #6
 8002076:	f042 02f0 	orr.w	r2, r2, #240	@ 0xf0
 800207a:	e7ca      	b.n	8002012 <HAL_I2C_EV_IRQHandler+0x5e>
 800207c:	6d22      	ldr	r2, [r4, #80]	@ 0x50
 800207e:	2a01      	cmp	r2, #1
 8002080:	d1b4      	bne.n	8001fec <HAL_I2C_EV_IRQHandler+0x38>
 8002082:	6c62      	ldr	r2, [r4, #68]	@ 0x44
 8002084:	11d2      	asrs	r2, r2, #7
 8002086:	f002 0206 	and.w	r2, r2, #6
 800208a:	f042 02f1 	orr.w	r2, r2, #241	@ 0xf1
 800208e:	e7c0      	b.n	8002012 <HAL_I2C_EV_IRQHandler+0x5e>
 8002090:	0706      	lsls	r6, r0, #28
 8002092:	d503      	bpl.n	800209c <HAL_I2C_EV_IRQHandler+0xe8>
 8002094:	0596      	lsls	r6, r2, #22
 8002096:	d501      	bpl.n	800209c <HAL_I2C_EV_IRQHandler+0xe8>
 8002098:	6c62      	ldr	r2, [r4, #68]	@ 0x44
 800209a:	e7e4      	b.n	8002066 <HAL_I2C_EV_IRQHandler+0xb2>
 800209c:	0786      	lsls	r6, r0, #30
 800209e:	f140 80f0 	bpl.w	8002282 <HAL_I2C_EV_IRQHandler+0x2ce>
 80020a2:	0596      	lsls	r6, r2, #22
 80020a4:	f140 80ed 	bpl.w	8002282 <HAL_I2C_EV_IRQHandler+0x2ce>
 80020a8:	f894 103e 	ldrb.w	r1, [r4, #62]	@ 0x3e
 80020ac:	6ae2      	ldr	r2, [r4, #44]	@ 0x2c
 80020ae:	6b25      	ldr	r5, [r4, #48]	@ 0x30
 80020b0:	f894 003d 	ldrb.w	r0, [r4, #61]	@ 0x3d
 80020b4:	b2c9      	uxtb	r1, r1
 80020b6:	2822      	cmp	r0, #34	@ 0x22
 80020b8:	f040 80db 	bne.w	8002272 <HAL_I2C_EV_IRQHandler+0x2be>
 80020bc:	6d20      	ldr	r0, [r4, #80]	@ 0x50
 80020be:	b940      	cbnz	r0, 80020d2 <HAL_I2C_EV_IRQHandler+0x11e>
 80020c0:	2940      	cmp	r1, #64	@ 0x40
 80020c2:	d106      	bne.n	80020d2 <HAL_I2C_EV_IRQHandler+0x11e>
 80020c4:	9000      	str	r0, [sp, #0]
 80020c6:	695a      	ldr	r2, [r3, #20]
 80020c8:	9200      	str	r2, [sp, #0]
 80020ca:	699b      	ldr	r3, [r3, #24]
 80020cc:	9300      	str	r3, [sp, #0]
 80020ce:	9b00      	ldr	r3, [sp, #0]
 80020d0:	e78c      	b.n	8001fec <HAL_I2C_EV_IRQHandler+0x38>
 80020d2:	6d21      	ldr	r1, [r4, #80]	@ 0x50
 80020d4:	b989      	cbnz	r1, 80020fa <HAL_I2C_EV_IRQHandler+0x146>
 80020d6:	6920      	ldr	r0, [r4, #16]
 80020d8:	f5b0 4f40 	cmp.w	r0, #49152	@ 0xc000
 80020dc:	d10d      	bne.n	80020fa <HAL_I2C_EV_IRQHandler+0x146>
 80020de:	9101      	str	r1, [sp, #4]
 80020e0:	695a      	ldr	r2, [r3, #20]
 80020e2:	9201      	str	r2, [sp, #4]
 80020e4:	699a      	ldr	r2, [r3, #24]
 80020e6:	9201      	str	r2, [sp, #4]
 80020e8:	9a01      	ldr	r2, [sp, #4]
 80020ea:	681a      	ldr	r2, [r3, #0]
 80020ec:	f442 7280 	orr.w	r2, r2, #256	@ 0x100
 80020f0:	601a      	str	r2, [r3, #0]
 80020f2:	6d23      	ldr	r3, [r4, #80]	@ 0x50
 80020f4:	3301      	adds	r3, #1
 80020f6:	6523      	str	r3, [r4, #80]	@ 0x50
 80020f8:	e778      	b.n	8001fec <HAL_I2C_EV_IRQHandler+0x38>
 80020fa:	8d61      	ldrh	r1, [r4, #42]	@ 0x2a
 80020fc:	b289      	uxth	r1, r1
 80020fe:	b951      	cbnz	r1, 8002116 <HAL_I2C_EV_IRQHandler+0x162>
 8002100:	9102      	str	r1, [sp, #8]
 8002102:	695a      	ldr	r2, [r3, #20]
 8002104:	9202      	str	r2, [sp, #8]
 8002106:	699a      	ldr	r2, [r3, #24]
 8002108:	9202      	str	r2, [sp, #8]
 800210a:	9a02      	ldr	r2, [sp, #8]
 800210c:	681a      	ldr	r2, [r3, #0]
 800210e:	f442 7200 	orr.w	r2, r2, #512	@ 0x200
 8002112:	601a      	str	r2, [r3, #0]
 8002114:	e019      	b.n	800214a <HAL_I2C_EV_IRQHandler+0x196>
 8002116:	8d61      	ldrh	r1, [r4, #42]	@ 0x2a
 8002118:	b289      	uxth	r1, r1
 800211a:	2901      	cmp	r1, #1
 800211c:	d149      	bne.n	80021b2 <HAL_I2C_EV_IRQHandler+0x1fe>
 800211e:	f512 3f80 	cmn.w	r2, #65536	@ 0x10000
 8002122:	d11b      	bne.n	800215c <HAL_I2C_EV_IRQHandler+0x1a8>
 8002124:	681a      	ldr	r2, [r3, #0]
 8002126:	f422 6280 	bic.w	r2, r2, #1024	@ 0x400
 800212a:	601a      	str	r2, [r3, #0]
 800212c:	685a      	ldr	r2, [r3, #4]
 800212e:	f412 6200 	ands.w	r2, r2, #2048	@ 0x800
 8002132:	d00c      	beq.n	800214e <HAL_I2C_EV_IRQHandler+0x19a>
 8002134:	681a      	ldr	r2, [r3, #0]
 8002136:	f422 6280 	bic.w	r2, r2, #1024	@ 0x400
 800213a:	601a      	str	r2, [r3, #0]
 800213c:	2200      	movs	r2, #0
 800213e:	9203      	str	r2, [sp, #12]
 8002140:	695a      	ldr	r2, [r3, #20]
 8002142:	9203      	str	r2, [sp, #12]
 8002144:	699b      	ldr	r3, [r3, #24]
 8002146:	9303      	str	r3, [sp, #12]
 8002148:	9b03      	ldr	r3, [sp, #12]
 800214a:	2300      	movs	r3, #0
 800214c:	e7d3      	b.n	80020f6 <HAL_I2C_EV_IRQHandler+0x142>
 800214e:	9204      	str	r2, [sp, #16]
 8002150:	695a      	ldr	r2, [r3, #20]
 8002152:	9204      	str	r2, [sp, #16]
 8002154:	699a      	ldr	r2, [r3, #24]
 8002156:	9204      	str	r2, [sp, #16]
 8002158:	9a04      	ldr	r2, [sp, #16]
 800215a:	e7d7      	b.n	800210c <HAL_I2C_EV_IRQHandler+0x158>
 800215c:	2a08      	cmp	r2, #8
 800215e:	d01c      	beq.n	800219a <HAL_I2C_EV_IRQHandler+0x1e6>
 8002160:	2a20      	cmp	r2, #32
 8002162:	d01a      	beq.n	800219a <HAL_I2C_EV_IRQHandler+0x1e6>
 8002164:	2d12      	cmp	r5, #18
 8002166:	d10d      	bne.n	8002184 <HAL_I2C_EV_IRQHandler+0x1d0>
 8002168:	2a01      	cmp	r2, #1
 800216a:	d116      	bne.n	800219a <HAL_I2C_EV_IRQHandler+0x1e6>
 800216c:	681a      	ldr	r2, [r3, #0]
 800216e:	f422 6280 	bic.w	r2, r2, #1024	@ 0x400
 8002172:	601a      	str	r2, [r3, #0]
 8002174:	2200      	movs	r2, #0
 8002176:	9205      	str	r2, [sp, #20]
 8002178:	695a      	ldr	r2, [r3, #20]
 800217a:	9205      	str	r2, [sp, #20]
 800217c:	699b      	ldr	r3, [r3, #24]
 800217e:	9305      	str	r3, [sp, #20]
 8002180:	9b05      	ldr	r3, [sp, #20]
 8002182:	e7e2      	b.n	800214a <HAL_I2C_EV_IRQHandler+0x196>
 8002184:	2a10      	cmp	r2, #16
 8002186:	d8f1      	bhi.n	800216c <HAL_I2C_EV_IRQHandler+0x1b8>
 8002188:	4986      	ldr	r1, [pc, #536]	@ (80023a4 <HAL_I2C_EV_IRQHandler+0x3f0>)
 800218a:	fa41 f202 	asr.w	r2, r1, r2
 800218e:	07d7      	lsls	r7, r2, #31
 8002190:	d4ec      	bmi.n	800216c <HAL_I2C_EV_IRQHandler+0x1b8>
 8002192:	681a      	ldr	r2, [r3, #0]
 8002194:	f442 6280 	orr.w	r2, r2, #1024	@ 0x400
 8002198:	e7eb      	b.n	8002172 <HAL_I2C_EV_IRQHandler+0x1be>
 800219a:	681a      	ldr	r2, [r3, #0]
 800219c:	f422 6280 	bic.w	r2, r2, #1024	@ 0x400
 80021a0:	601a      	str	r2, [r3, #0]
 80021a2:	2200      	movs	r2, #0
 80021a4:	9206      	str	r2, [sp, #24]
 80021a6:	695a      	ldr	r2, [r3, #20]
 80021a8:	9206      	str	r2, [sp, #24]
 80021aa:	699a      	ldr	r2, [r3, #24]
 80021ac:	9206      	str	r2, [sp, #24]
 80021ae:	9a06      	ldr	r2, [sp, #24]
 80021b0:	e7ac      	b.n	800210c <HAL_I2C_EV_IRQHandler+0x158>
 80021b2:	8d61      	ldrh	r1, [r4, #42]	@ 0x2a
 80021b4:	b289      	uxth	r1, r1
 80021b6:	2902      	cmp	r1, #2
 80021b8:	d138      	bne.n	800222c <HAL_I2C_EV_IRQHandler+0x278>
 80021ba:	2a10      	cmp	r2, #16
 80021bc:	d803      	bhi.n	80021c6 <HAL_I2C_EV_IRQHandler+0x212>
 80021be:	497a      	ldr	r1, [pc, #488]	@ (80023a8 <HAL_I2C_EV_IRQHandler+0x3f4>)
 80021c0:	40d1      	lsrs	r1, r2
 80021c2:	07ce      	lsls	r6, r1, #31
 80021c4:	d418      	bmi.n	80021f8 <HAL_I2C_EV_IRQHandler+0x244>
 80021c6:	6819      	ldr	r1, [r3, #0]
 80021c8:	f441 6100 	orr.w	r1, r1, #2048	@ 0x800
 80021cc:	6019      	str	r1, [r3, #0]
 80021ce:	2100      	movs	r1, #0
 80021d0:	9107      	str	r1, [sp, #28]
 80021d2:	6959      	ldr	r1, [r3, #20]
 80021d4:	9107      	str	r1, [sp, #28]
 80021d6:	6999      	ldr	r1, [r3, #24]
 80021d8:	9107      	str	r1, [sp, #28]
 80021da:	9907      	ldr	r1, [sp, #28]
 80021dc:	6819      	ldr	r1, [r3, #0]
 80021de:	f421 6180 	bic.w	r1, r1, #1024	@ 0x400
 80021e2:	6019      	str	r1, [r3, #0]
 80021e4:	6859      	ldr	r1, [r3, #4]
 80021e6:	050d      	lsls	r5, r1, #20
 80021e8:	d5af      	bpl.n	800214a <HAL_I2C_EV_IRQHandler+0x196>
 80021ea:	2a20      	cmp	r2, #32
 80021ec:	d81b      	bhi.n	8002226 <HAL_I2C_EV_IRQHandler+0x272>
 80021ee:	2a07      	cmp	r2, #7
 80021f0:	d80e      	bhi.n	8002210 <HAL_I2C_EV_IRQHandler+0x25c>
 80021f2:	2a01      	cmp	r2, #1
 80021f4:	d1a9      	bne.n	800214a <HAL_I2C_EV_IRQHandler+0x196>
 80021f6:	e011      	b.n	800221c <HAL_I2C_EV_IRQHandler+0x268>
 80021f8:	6819      	ldr	r1, [r3, #0]
 80021fa:	f441 6180 	orr.w	r1, r1, #1024	@ 0x400
 80021fe:	6019      	str	r1, [r3, #0]
 8002200:	2100      	movs	r1, #0
 8002202:	9108      	str	r1, [sp, #32]
 8002204:	6959      	ldr	r1, [r3, #20]
 8002206:	9108      	str	r1, [sp, #32]
 8002208:	6999      	ldr	r1, [r3, #24]
 800220a:	9108      	str	r1, [sp, #32]
 800220c:	9908      	ldr	r1, [sp, #32]
 800220e:	e7e9      	b.n	80021e4 <HAL_I2C_EV_IRQHandler+0x230>
 8002210:	f1a2 0108 	sub.w	r1, r2, #8
 8002214:	4a65      	ldr	r2, [pc, #404]	@ (80023ac <HAL_I2C_EV_IRQHandler+0x3f8>)
 8002216:	40ca      	lsrs	r2, r1
 8002218:	07d0      	lsls	r0, r2, #31
 800221a:	d596      	bpl.n	800214a <HAL_I2C_EV_IRQHandler+0x196>
 800221c:	685a      	ldr	r2, [r3, #4]
 800221e:	f442 5280 	orr.w	r2, r2, #4096	@ 0x1000
 8002222:	605a      	str	r2, [r3, #4]
 8002224:	e791      	b.n	800214a <HAL_I2C_EV_IRQHandler+0x196>
 8002226:	f512 3f80 	cmn.w	r2, #65536	@ 0x10000
 800222a:	e7e3      	b.n	80021f4 <HAL_I2C_EV_IRQHandler+0x240>
 800222c:	6819      	ldr	r1, [r3, #0]
 800222e:	f441 6180 	orr.w	r1, r1, #1024	@ 0x400
 8002232:	6019      	str	r1, [r3, #0]
 8002234:	6859      	ldr	r1, [r3, #4]
 8002236:	0509      	lsls	r1, r1, #20
 8002238:	d510      	bpl.n	800225c <HAL_I2C_EV_IRQHandler+0x2a8>
 800223a:	2a20      	cmp	r2, #32
 800223c:	d816      	bhi.n	800226c <HAL_I2C_EV_IRQHandler+0x2b8>
 800223e:	2a07      	cmp	r2, #7
 8002240:	d806      	bhi.n	8002250 <HAL_I2C_EV_IRQHandler+0x29c>
 8002242:	2a01      	cmp	r2, #1
 8002244:	d10a      	bne.n	800225c <HAL_I2C_EV_IRQHandler+0x2a8>
 8002246:	685a      	ldr	r2, [r3, #4]
 8002248:	f442 5280 	orr.w	r2, r2, #4096	@ 0x1000
 800224c:	605a      	str	r2, [r3, #4]
 800224e:	e005      	b.n	800225c <HAL_I2C_EV_IRQHandler+0x2a8>
 8002250:	f1a2 0108 	sub.w	r1, r2, #8
 8002254:	4a55      	ldr	r2, [pc, #340]	@ (80023ac <HAL_I2C_EV_IRQHandler+0x3f8>)
 8002256:	40ca      	lsrs	r2, r1
 8002258:	07d2      	lsls	r2, r2, #31
 800225a:	d4f4      	bmi.n	8002246 <HAL_I2C_EV_IRQHandler+0x292>
 800225c:	2200      	movs	r2, #0
 800225e:	9209      	str	r2, [sp, #36]	@ 0x24
 8002260:	695a      	ldr	r2, [r3, #20]
 8002262:	9209      	str	r2, [sp, #36]	@ 0x24
 8002264:	699b      	ldr	r3, [r3, #24]
 8002266:	9309      	str	r3, [sp, #36]	@ 0x24
 8002268:	9b09      	ldr	r3, [sp, #36]	@ 0x24
 800226a:	e76e      	b.n	800214a <HAL_I2C_EV_IRQHandler+0x196>
 800226c:	f512 3f80 	cmn.w	r2, #65536	@ 0x10000
 8002270:	e7e8      	b.n	8002244 <HAL_I2C_EV_IRQHandler+0x290>
 8002272:	2200      	movs	r2, #0
 8002274:	920a      	str	r2, [sp, #40]	@ 0x28
 8002276:	695a      	ldr	r2, [r3, #20]
 8002278:	920a      	str	r2, [sp, #40]	@ 0x28
 800227a:	699b      	ldr	r3, [r3, #24]
 800227c:	930a      	str	r3, [sp, #40]	@ 0x28
 800227e:	9b0a      	ldr	r3, [sp, #40]	@ 0x28
 8002280:	e6b4      	b.n	8001fec <HAL_I2C_EV_IRQHandler+0x38>
 8002282:	077f      	lsls	r7, r7, #29
 8002284:	f140 8094 	bpl.w	80023b0 <HAL_I2C_EV_IRQHandler+0x3fc>
 8002288:	685e      	ldr	r6, [r3, #4]
 800228a:	0536      	lsls	r6, r6, #20
 800228c:	f53f aeae 	bmi.w	8001fec <HAL_I2C_EV_IRQHandler+0x38>
 8002290:	0607      	lsls	r7, r0, #24
 8002292:	f000 0604 	and.w	r6, r0, #4
 8002296:	d53e      	bpl.n	8002316 <HAL_I2C_EV_IRQHandler+0x362>
 8002298:	0550      	lsls	r0, r2, #21
 800229a:	d53c      	bpl.n	8002316 <HAL_I2C_EV_IRQHandler+0x362>
 800229c:	2e00      	cmp	r6, #0
 800229e:	d13d      	bne.n	800231c <HAL_I2C_EV_IRQHandler+0x368>
 80022a0:	f894 203d 	ldrb.w	r2, [r4, #61]	@ 0x3d
 80022a4:	8d25      	ldrh	r5, [r4, #40]	@ 0x28
 80022a6:	f894 103e 	ldrb.w	r1, [r4, #62]	@ 0x3e
 80022aa:	b2d2      	uxtb	r2, r2
 80022ac:	6ae0      	ldr	r0, [r4, #44]	@ 0x2c
 80022ae:	b2c9      	uxtb	r1, r1
 80022b0:	b9c5      	cbnz	r5, 80022e4 <HAL_I2C_EV_IRQHandler+0x330>
 80022b2:	2a21      	cmp	r2, #33	@ 0x21
 80022b4:	d118      	bne.n	80022e8 <HAL_I2C_EV_IRQHandler+0x334>
 80022b6:	2808      	cmp	r0, #8
 80022b8:	d058      	beq.n	800236c <HAL_I2C_EV_IRQHandler+0x3b8>
 80022ba:	2820      	cmp	r0, #32
 80022bc:	d056      	beq.n	800236c <HAL_I2C_EV_IRQHandler+0x3b8>
 80022be:	f510 3f80 	cmn.w	r0, #65536	@ 0x10000
 80022c2:	d053      	beq.n	800236c <HAL_I2C_EV_IRQHandler+0x3b8>
 80022c4:	685a      	ldr	r2, [r3, #4]
 80022c6:	f422 62e0 	bic.w	r2, r2, #1792	@ 0x700
 80022ca:	605a      	str	r2, [r3, #4]
 80022cc:	2311      	movs	r3, #17
 80022ce:	6323      	str	r3, [r4, #48]	@ 0x30
 80022d0:	2300      	movs	r3, #0
 80022d2:	f884 303e 	strb.w	r3, [r4, #62]	@ 0x3e
 80022d6:	2320      	movs	r3, #32
 80022d8:	4620      	mov	r0, r4
 80022da:	f884 303d 	strb.w	r3, [r4, #61]	@ 0x3d
 80022de:	f7ff fcff 	bl	8001ce0 <HAL_I2C_MasterTxCpltCallback>
 80022e2:	e683      	b.n	8001fec <HAL_I2C_EV_IRQHandler+0x38>
 80022e4:	2a21      	cmp	r2, #33	@ 0x21
 80022e6:	d005      	beq.n	80022f4 <HAL_I2C_EV_IRQHandler+0x340>
 80022e8:	2940      	cmp	r1, #64	@ 0x40
 80022ea:	f47f ae7f 	bne.w	8001fec <HAL_I2C_EV_IRQHandler+0x38>
 80022ee:	2a22      	cmp	r2, #34	@ 0x22
 80022f0:	f47f ae7c 	bne.w	8001fec <HAL_I2C_EV_IRQHandler+0x38>
 80022f4:	8d62      	ldrh	r2, [r4, #42]	@ 0x2a
 80022f6:	b292      	uxth	r2, r2
 80022f8:	b91a      	cbnz	r2, 8002302 <HAL_I2C_EV_IRQHandler+0x34e>
 80022fa:	685a      	ldr	r2, [r3, #4]
 80022fc:	f422 6280 	bic.w	r2, r2, #1024	@ 0x400
 8002300:	e6ad      	b.n	800205e <HAL_I2C_EV_IRQHandler+0xaa>
 8002302:	f894 203e 	ldrb.w	r2, [r4, #62]	@ 0x3e
 8002306:	2a40      	cmp	r2, #64	@ 0x40
 8002308:	d116      	bne.n	8002338 <HAL_I2C_EV_IRQHandler+0x384>
 800230a:	4620      	mov	r0, r4
 800230c:	b00f      	add	sp, #60	@ 0x3c
 800230e:	e8bd 40f0 	ldmia.w	sp!, {r4, r5, r6, r7, lr}
 8002312:	f7ff bcec 	b.w	8001cee <I2C_MemoryTransmit_TXE_BTF>
 8002316:	2e00      	cmp	r6, #0
 8002318:	f43f ae68 	beq.w	8001fec <HAL_I2C_EV_IRQHandler+0x38>
 800231c:	0597      	lsls	r7, r2, #22
 800231e:	f57f ae65 	bpl.w	8001fec <HAL_I2C_EV_IRQHandler+0x38>
 8002322:	2921      	cmp	r1, #33	@ 0x21
 8002324:	d139      	bne.n	800239a <HAL_I2C_EV_IRQHandler+0x3e6>
 8002326:	6ae1      	ldr	r1, [r4, #44]	@ 0x2c
 8002328:	f894 203d 	ldrb.w	r2, [r4, #61]	@ 0x3d
 800232c:	2a21      	cmp	r2, #33	@ 0x21
 800232e:	f47f ae5d 	bne.w	8001fec <HAL_I2C_EV_IRQHandler+0x38>
 8002332:	8d62      	ldrh	r2, [r4, #42]	@ 0x2a
 8002334:	b292      	uxth	r2, r2
 8002336:	b14a      	cbz	r2, 800234c <HAL_I2C_EV_IRQHandler+0x398>
 8002338:	6a62      	ldr	r2, [r4, #36]	@ 0x24
 800233a:	f812 1b01 	ldrb.w	r1, [r2], #1
 800233e:	6119      	str	r1, [r3, #16]
 8002340:	6262      	str	r2, [r4, #36]	@ 0x24
 8002342:	8d63      	ldrh	r3, [r4, #42]	@ 0x2a
 8002344:	3b01      	subs	r3, #1
 8002346:	b29b      	uxth	r3, r3
 8002348:	8563      	strh	r3, [r4, #42]	@ 0x2a
 800234a:	e64f      	b.n	8001fec <HAL_I2C_EV_IRQHandler+0x38>
 800234c:	2908      	cmp	r1, #8
 800234e:	d00d      	beq.n	800236c <HAL_I2C_EV_IRQHandler+0x3b8>
 8002350:	2920      	cmp	r1, #32
 8002352:	d00b      	beq.n	800236c <HAL_I2C_EV_IRQHandler+0x3b8>
 8002354:	f511 3f80 	cmn.w	r1, #65536	@ 0x10000
 8002358:	d008      	beq.n	800236c <HAL_I2C_EV_IRQHandler+0x3b8>
 800235a:	6859      	ldr	r1, [r3, #4]
 800235c:	f421 61e0 	bic.w	r1, r1, #1792	@ 0x700
 8002360:	6059      	str	r1, [r3, #4]
 8002362:	2311      	movs	r3, #17
 8002364:	6323      	str	r3, [r4, #48]	@ 0x30
 8002366:	f884 203e 	strb.w	r2, [r4, #62]	@ 0x3e
 800236a:	e7b4      	b.n	80022d6 <HAL_I2C_EV_IRQHandler+0x322>
 800236c:	685a      	ldr	r2, [r3, #4]
 800236e:	4620      	mov	r0, r4
 8002370:	f422 62e0 	bic.w	r2, r2, #1792	@ 0x700
 8002374:	605a      	str	r2, [r3, #4]
 8002376:	681a      	ldr	r2, [r3, #0]
 8002378:	f442 7200 	orr.w	r2, r2, #512	@ 0x200
 800237c:	601a      	str	r2, [r3, #0]
 800237e:	2300      	movs	r3, #0
 8002380:	2220      	movs	r2, #32
 8002382:	6323      	str	r3, [r4, #48]	@ 0x30
 8002384:	f884 203d 	strb.w	r2, [r4, #61]	@ 0x3d
 8002388:	f894 203e 	ldrb.w	r2, [r4, #62]	@ 0x3e
 800238c:	f884 303e 	strb.w	r3, [r4, #62]	@ 0x3e
 8002390:	2a40      	cmp	r2, #64	@ 0x40
 8002392:	d1a4      	bne.n	80022de <HAL_I2C_EV_IRQHandler+0x32a>
 8002394:	f7ff fcaa 	bl	8001cec <HAL_I2C_MemTxCpltCallback>
 8002398:	e628      	b.n	8001fec <HAL_I2C_EV_IRQHandler+0x38>
 800239a:	2d40      	cmp	r5, #64	@ 0x40
 800239c:	f47f ae26 	bne.w	8001fec <HAL_I2C_EV_IRQHandler+0x38>
 80023a0:	e7b3      	b.n	800230a <HAL_I2C_EV_IRQHandler+0x356>
 80023a2:	bf00      	nop
 80023a4:	fffeffeb 	.word	0xfffeffeb
 80023a8:	00010014 	.word	0x00010014
 80023ac:	01000101 	.word	0x01000101
 80023b0:	6859      	ldr	r1, [r3, #4]
 80023b2:	050e      	lsls	r6, r1, #20
 80023b4:	f53f ae1a 	bmi.w	8001fec <HAL_I2C_EV_IRQHandler+0x38>
 80023b8:	0645      	lsls	r5, r0, #25
 80023ba:	f000 0104 	and.w	r1, r0, #4
 80023be:	f140 8086 	bpl.w	80024ce <HAL_I2C_EV_IRQHandler+0x51a>
 80023c2:	0550      	lsls	r0, r2, #21
 80023c4:	f140 8083 	bpl.w	80024ce <HAL_I2C_EV_IRQHandler+0x51a>
 80023c8:	2900      	cmp	r1, #0
 80023ca:	f040 8083 	bne.w	80024d4 <HAL_I2C_EV_IRQHandler+0x520>
 80023ce:	f894 203d 	ldrb.w	r2, [r4, #61]	@ 0x3d
 80023d2:	2a22      	cmp	r2, #34	@ 0x22
 80023d4:	f47f ae0a 	bne.w	8001fec <HAL_I2C_EV_IRQHandler+0x38>
 80023d8:	6ae0      	ldr	r0, [r4, #44]	@ 0x2c
 80023da:	8d62      	ldrh	r2, [r4, #42]	@ 0x2a
 80023dc:	b292      	uxth	r2, r2
 80023de:	2a03      	cmp	r2, #3
 80023e0:	d914      	bls.n	800240c <HAL_I2C_EV_IRQHandler+0x458>
 80023e2:	691a      	ldr	r2, [r3, #16]
 80023e4:	6a63      	ldr	r3, [r4, #36]	@ 0x24
 80023e6:	701a      	strb	r2, [r3, #0]
 80023e8:	6a63      	ldr	r3, [r4, #36]	@ 0x24
 80023ea:	3301      	adds	r3, #1
 80023ec:	6263      	str	r3, [r4, #36]	@ 0x24
 80023ee:	8d63      	ldrh	r3, [r4, #42]	@ 0x2a
 80023f0:	3b01      	subs	r3, #1
 80023f2:	b29b      	uxth	r3, r3
 80023f4:	8563      	strh	r3, [r4, #42]	@ 0x2a
 80023f6:	8d63      	ldrh	r3, [r4, #42]	@ 0x2a
 80023f8:	b29b      	uxth	r3, r3
 80023fa:	2b03      	cmp	r3, #3
 80023fc:	f47f adf6 	bne.w	8001fec <HAL_I2C_EV_IRQHandler+0x38>
 8002400:	6822      	ldr	r2, [r4, #0]
 8002402:	6853      	ldr	r3, [r2, #4]
 8002404:	f423 6380 	bic.w	r3, r3, #1024	@ 0x400
 8002408:	6053      	str	r3, [r2, #4]
 800240a:	e5ef      	b.n	8001fec <HAL_I2C_EV_IRQHandler+0x38>
 800240c:	6ae5      	ldr	r5, [r4, #44]	@ 0x2c
 800240e:	2d02      	cmp	r5, #2
 8002410:	f43f af73 	beq.w	80022fa <HAL_I2C_EV_IRQHandler+0x346>
 8002414:	2a01      	cmp	r2, #1
 8002416:	f63f af70 	bhi.w	80022fa <HAL_I2C_EV_IRQHandler+0x346>
 800241a:	910b      	str	r1, [sp, #44]	@ 0x2c
 800241c:	f246 11a8 	movw	r1, #25000	@ 0x61a8
 8002420:	4a79      	ldr	r2, [pc, #484]	@ (8002608 <HAL_I2C_EV_IRQHandler+0x654>)
 8002422:	6812      	ldr	r2, [r2, #0]
 8002424:	fbb2 f2f1 	udiv	r2, r2, r1
 8002428:	eb02 0282 	add.w	r2, r2, r2, lsl #2
 800242c:	920b      	str	r2, [sp, #44]	@ 0x2c
 800242e:	9a0b      	ldr	r2, [sp, #44]	@ 0x2c
 8002430:	3a01      	subs	r2, #1
 8002432:	920b      	str	r2, [sp, #44]	@ 0x2c
 8002434:	990b      	ldr	r1, [sp, #44]	@ 0x2c
 8002436:	b9d1      	cbnz	r1, 800246e <HAL_I2C_EV_IRQHandler+0x4ba>
 8002438:	6c22      	ldr	r2, [r4, #64]	@ 0x40
 800243a:	4620      	mov	r0, r4
 800243c:	f042 0220 	orr.w	r2, r2, #32
 8002440:	6422      	str	r2, [r4, #64]	@ 0x40
 8002442:	685a      	ldr	r2, [r3, #4]
 8002444:	f422 62e0 	bic.w	r2, r2, #1792	@ 0x700
 8002448:	605a      	str	r2, [r3, #4]
 800244a:	691a      	ldr	r2, [r3, #16]
 800244c:	6a63      	ldr	r3, [r4, #36]	@ 0x24
 800244e:	701a      	strb	r2, [r3, #0]
 8002450:	6a63      	ldr	r3, [r4, #36]	@ 0x24
 8002452:	3301      	adds	r3, #1
 8002454:	6263      	str	r3, [r4, #36]	@ 0x24
 8002456:	8d63      	ldrh	r3, [r4, #42]	@ 0x2a
 8002458:	3b01      	subs	r3, #1
 800245a:	b29b      	uxth	r3, r3
 800245c:	8563      	strh	r3, [r4, #42]	@ 0x2a
 800245e:	2320      	movs	r3, #32
 8002460:	f884 303d 	strb.w	r3, [r4, #61]	@ 0x3d
 8002464:	f884 103e 	strb.w	r1, [r4, #62]	@ 0x3e
 8002468:	f7ff fc9a 	bl	8001da0 <HAL_I2C_ErrorCallback>
 800246c:	e5be      	b.n	8001fec <HAL_I2C_EV_IRQHandler+0x38>
 800246e:	681a      	ldr	r2, [r3, #0]
 8002470:	f412 7200 	ands.w	r2, r2, #512	@ 0x200
 8002474:	d1db      	bne.n	800242e <HAL_I2C_EV_IRQHandler+0x47a>
 8002476:	6819      	ldr	r1, [r3, #0]
 8002478:	f421 6180 	bic.w	r1, r1, #1024	@ 0x400
 800247c:	6019      	str	r1, [r3, #0]
 800247e:	6859      	ldr	r1, [r3, #4]
 8002480:	f421 61e0 	bic.w	r1, r1, #1792	@ 0x700
 8002484:	6059      	str	r1, [r3, #4]
 8002486:	6919      	ldr	r1, [r3, #16]
 8002488:	6a63      	ldr	r3, [r4, #36]	@ 0x24
 800248a:	7019      	strb	r1, [r3, #0]
 800248c:	6a63      	ldr	r3, [r4, #36]	@ 0x24
 800248e:	3301      	adds	r3, #1
 8002490:	6263      	str	r3, [r4, #36]	@ 0x24
 8002492:	8d63      	ldrh	r3, [r4, #42]	@ 0x2a
 8002494:	3b01      	subs	r3, #1
 8002496:	b29b      	uxth	r3, r3
 8002498:	8563      	strh	r3, [r4, #42]	@ 0x2a
 800249a:	2320      	movs	r3, #32
 800249c:	f884 303d 	strb.w	r3, [r4, #61]	@ 0x3d
 80024a0:	f894 303e 	ldrb.w	r3, [r4, #62]	@ 0x3e
 80024a4:	f884 203e 	strb.w	r2, [r4, #62]	@ 0x3e
 80024a8:	2b40      	cmp	r3, #64	@ 0x40
 80024aa:	d104      	bne.n	80024b6 <HAL_I2C_EV_IRQHandler+0x502>
 80024ac:	6322      	str	r2, [r4, #48]	@ 0x30
 80024ae:	4620      	mov	r0, r4
 80024b0:	f7ff fc75 	bl	8001d9e <HAL_I2C_MemRxCpltCallback>
 80024b4:	e59a      	b.n	8001fec <HAL_I2C_EV_IRQHandler+0x38>
 80024b6:	2808      	cmp	r0, #8
 80024b8:	d001      	beq.n	80024be <HAL_I2C_EV_IRQHandler+0x50a>
 80024ba:	2820      	cmp	r0, #32
 80024bc:	d101      	bne.n	80024c2 <HAL_I2C_EV_IRQHandler+0x50e>
 80024be:	2300      	movs	r3, #0
 80024c0:	e000      	b.n	80024c4 <HAL_I2C_EV_IRQHandler+0x510>
 80024c2:	2312      	movs	r3, #18
 80024c4:	4620      	mov	r0, r4
 80024c6:	6323      	str	r3, [r4, #48]	@ 0x30
 80024c8:	f7ff fc0b 	bl	8001ce2 <HAL_I2C_MasterRxCpltCallback>
 80024cc:	e58e      	b.n	8001fec <HAL_I2C_EV_IRQHandler+0x38>
 80024ce:	2900      	cmp	r1, #0
 80024d0:	f43f ad8c 	beq.w	8001fec <HAL_I2C_EV_IRQHandler+0x38>
 80024d4:	0592      	lsls	r2, r2, #22
 80024d6:	f57f ad89 	bpl.w	8001fec <HAL_I2C_EV_IRQHandler+0x38>
 80024da:	6ae2      	ldr	r2, [r4, #44]	@ 0x2c
 80024dc:	8d60      	ldrh	r0, [r4, #42]	@ 0x2a
 80024de:	6a61      	ldr	r1, [r4, #36]	@ 0x24
 80024e0:	b280      	uxth	r0, r0
 80024e2:	2804      	cmp	r0, #4
 80024e4:	d109      	bne.n	80024fa <HAL_I2C_EV_IRQHandler+0x546>
 80024e6:	685a      	ldr	r2, [r3, #4]
 80024e8:	f422 6280 	bic.w	r2, r2, #1024	@ 0x400
 80024ec:	605a      	str	r2, [r3, #4]
 80024ee:	691b      	ldr	r3, [r3, #16]
 80024f0:	700b      	strb	r3, [r1, #0]
 80024f2:	6a63      	ldr	r3, [r4, #36]	@ 0x24
 80024f4:	3301      	adds	r3, #1
 80024f6:	6263      	str	r3, [r4, #36]	@ 0x24
 80024f8:	e723      	b.n	8002342 <HAL_I2C_EV_IRQHandler+0x38e>
 80024fa:	8d60      	ldrh	r0, [r4, #42]	@ 0x2a
 80024fc:	b280      	uxth	r0, r0
 80024fe:	2803      	cmp	r0, #3
 8002500:	d10c      	bne.n	800251c <HAL_I2C_EV_IRQHandler+0x568>
 8002502:	6858      	ldr	r0, [r3, #4]
 8002504:	2a04      	cmp	r2, #4
 8002506:	f420 6080 	bic.w	r0, r0, #1024	@ 0x400
 800250a:	6058      	str	r0, [r3, #4]
 800250c:	d0ef      	beq.n	80024ee <HAL_I2C_EV_IRQHandler+0x53a>
 800250e:	2a02      	cmp	r2, #2
 8002510:	d0ed      	beq.n	80024ee <HAL_I2C_EV_IRQHandler+0x53a>
 8002512:	681a      	ldr	r2, [r3, #0]
 8002514:	f422 6280 	bic.w	r2, r2, #1024	@ 0x400
 8002518:	601a      	str	r2, [r3, #0]
 800251a:	e7e8      	b.n	80024ee <HAL_I2C_EV_IRQHandler+0x53a>
 800251c:	8d60      	ldrh	r0, [r4, #42]	@ 0x2a
 800251e:	b280      	uxth	r0, r0
 8002520:	2802      	cmp	r0, #2
 8002522:	d1e4      	bne.n	80024ee <HAL_I2C_EV_IRQHandler+0x53a>
 8002524:	2a04      	cmp	r2, #4
 8002526:	d033      	beq.n	8002590 <HAL_I2C_EV_IRQHandler+0x5dc>
 8002528:	d807      	bhi.n	800253a <HAL_I2C_EV_IRQHandler+0x586>
 800252a:	2a01      	cmp	r2, #1
 800252c:	d007      	beq.n	800253e <HAL_I2C_EV_IRQHandler+0x58a>
 800252e:	2a02      	cmp	r2, #2
 8002530:	d02e      	beq.n	8002590 <HAL_I2C_EV_IRQHandler+0x5dc>
 8002532:	6818      	ldr	r0, [r3, #0]
 8002534:	f440 7000 	orr.w	r0, r0, #512	@ 0x200
 8002538:	e004      	b.n	8002544 <HAL_I2C_EV_IRQHandler+0x590>
 800253a:	2a10      	cmp	r2, #16
 800253c:	d1f9      	bne.n	8002532 <HAL_I2C_EV_IRQHandler+0x57e>
 800253e:	6818      	ldr	r0, [r3, #0]
 8002540:	f420 6080 	bic.w	r0, r0, #1024	@ 0x400
 8002544:	6018      	str	r0, [r3, #0]
 8002546:	691b      	ldr	r3, [r3, #16]
 8002548:	700b      	strb	r3, [r1, #0]
 800254a:	6a61      	ldr	r1, [r4, #36]	@ 0x24
 800254c:	1c4b      	adds	r3, r1, #1
 800254e:	6263      	str	r3, [r4, #36]	@ 0x24
 8002550:	8d63      	ldrh	r3, [r4, #42]	@ 0x2a
 8002552:	3b01      	subs	r3, #1
 8002554:	b29b      	uxth	r3, r3
 8002556:	8563      	strh	r3, [r4, #42]	@ 0x2a
 8002558:	6823      	ldr	r3, [r4, #0]
 800255a:	691b      	ldr	r3, [r3, #16]
 800255c:	704b      	strb	r3, [r1, #1]
 800255e:	6a63      	ldr	r3, [r4, #36]	@ 0x24
 8002560:	6821      	ldr	r1, [r4, #0]
 8002562:	3301      	adds	r3, #1
 8002564:	6263      	str	r3, [r4, #36]	@ 0x24
 8002566:	8d63      	ldrh	r3, [r4, #42]	@ 0x2a
 8002568:	3b01      	subs	r3, #1
 800256a:	b29b      	uxth	r3, r3
 800256c:	8563      	strh	r3, [r4, #42]	@ 0x2a
 800256e:	684b      	ldr	r3, [r1, #4]
 8002570:	f423 7340 	bic.w	r3, r3, #768	@ 0x300
 8002574:	604b      	str	r3, [r1, #4]
 8002576:	2320      	movs	r3, #32
 8002578:	f884 303d 	strb.w	r3, [r4, #61]	@ 0x3d
 800257c:	f894 303e 	ldrb.w	r3, [r4, #62]	@ 0x3e
 8002580:	2b40      	cmp	r3, #64	@ 0x40
 8002582:	f04f 0300 	mov.w	r3, #0
 8002586:	f884 303e 	strb.w	r3, [r4, #62]	@ 0x3e
 800258a:	d105      	bne.n	8002598 <HAL_I2C_EV_IRQHandler+0x5e4>
 800258c:	6323      	str	r3, [r4, #48]	@ 0x30
 800258e:	e78e      	b.n	80024ae <HAL_I2C_EV_IRQHandler+0x4fa>
 8002590:	6818      	ldr	r0, [r3, #0]
 8002592:	f440 6080 	orr.w	r0, r0, #1024	@ 0x400
 8002596:	e7d5      	b.n	8002544 <HAL_I2C_EV_IRQHandler+0x590>
 8002598:	2a08      	cmp	r2, #8
 800259a:	d090      	beq.n	80024be <HAL_I2C_EV_IRQHandler+0x50a>
 800259c:	2a20      	cmp	r2, #32
 800259e:	e78d      	b.n	80024bc <HAL_I2C_EV_IRQHandler+0x508>
 80025a0:	6c20      	ldr	r0, [r4, #64]	@ 0x40
 80025a2:	b320      	cbz	r0, 80025ee <HAL_I2C_EV_IRQHandler+0x63a>
 80025a4:	2500      	movs	r5, #0
 80025a6:	6958      	ldr	r0, [r3, #20]
 80025a8:	0787      	lsls	r7, r0, #30
 80025aa:	d52f      	bpl.n	800260c <HAL_I2C_EV_IRQHandler+0x658>
 80025ac:	0596      	lsls	r6, r2, #22
 80025ae:	d52d      	bpl.n	800260c <HAL_I2C_EV_IRQHandler+0x658>
 80025b0:	6c22      	ldr	r2, [r4, #64]	@ 0x40
 80025b2:	b102      	cbz	r2, 80025b6 <HAL_I2C_EV_IRQHandler+0x602>
 80025b4:	699d      	ldr	r5, [r3, #24]
 80025b6:	f894 203d 	ldrb.w	r2, [r4, #61]	@ 0x3d
 80025ba:	f002 0228 	and.w	r2, r2, #40	@ 0x28
 80025be:	2a28      	cmp	r2, #40	@ 0x28
 80025c0:	d118      	bne.n	80025f4 <HAL_I2C_EV_IRQHandler+0x640>
 80025c2:	685a      	ldr	r2, [r3, #4]
 80025c4:	062f      	lsls	r7, r5, #24
 80025c6:	f422 6280 	bic.w	r2, r2, #1024	@ 0x400
 80025ca:	605a      	str	r2, [r3, #4]
 80025cc:	f04f 0300 	mov.w	r3, #0
 80025d0:	bf54      	ite	pl
 80025d2:	68e2      	ldrpl	r2, [r4, #12]
 80025d4:	69a2      	ldrmi	r2, [r4, #24]
 80025d6:	f3c5 0180 	ubfx	r1, r5, #2, #1
 80025da:	f081 0101 	eor.w	r1, r1, #1
 80025de:	4620      	mov	r0, r4
 80025e0:	b2c9      	uxtb	r1, r1
 80025e2:	f884 303c 	strb.w	r3, [r4, #60]	@ 0x3c
 80025e6:	b292      	uxth	r2, r2
 80025e8:	f7ff fb7e 	bl	8001ce8 <HAL_I2C_AddrCallback>
 80025ec:	e4fe      	b.n	8001fec <HAL_I2C_EV_IRQHandler+0x38>
 80025ee:	699d      	ldr	r5, [r3, #24]
 80025f0:	6958      	ldr	r0, [r3, #20]
 80025f2:	e7d9      	b.n	80025a8 <HAL_I2C_EV_IRQHandler+0x5f4>
 80025f4:	2200      	movs	r2, #0
 80025f6:	920c      	str	r2, [sp, #48]	@ 0x30
 80025f8:	6959      	ldr	r1, [r3, #20]
 80025fa:	910c      	str	r1, [sp, #48]	@ 0x30
 80025fc:	699b      	ldr	r3, [r3, #24]
 80025fe:	f884 203c 	strb.w	r2, [r4, #60]	@ 0x3c
 8002602:	930c      	str	r3, [sp, #48]	@ 0x30
 8002604:	9b0c      	ldr	r3, [sp, #48]	@ 0x30
 8002606:	e4f1      	b.n	8001fec <HAL_I2C_EV_IRQHandler+0x38>
 8002608:	20000004 	.word	0x20000004
 800260c:	06c6      	lsls	r6, r0, #27
 800260e:	f140 80b1 	bpl.w	8002774 <HAL_I2C_EV_IRQHandler+0x7c0>
 8002612:	0595      	lsls	r5, r2, #22
 8002614:	f140 80ae 	bpl.w	8002774 <HAL_I2C_EV_IRQHandler+0x7c0>
 8002618:	f894 503d 	ldrb.w	r5, [r4, #61]	@ 0x3d
 800261c:	685a      	ldr	r2, [r3, #4]
 800261e:	b2ed      	uxtb	r5, r5
 8002620:	f422 62e0 	bic.w	r2, r2, #1792	@ 0x700
 8002624:	605a      	str	r2, [r3, #4]
 8002626:	2200      	movs	r2, #0
 8002628:	920d      	str	r2, [sp, #52]	@ 0x34
 800262a:	695a      	ldr	r2, [r3, #20]
 800262c:	920d      	str	r2, [sp, #52]	@ 0x34
 800262e:	681a      	ldr	r2, [r3, #0]
 8002630:	f042 0201 	orr.w	r2, r2, #1
 8002634:	601a      	str	r2, [r3, #0]
 8002636:	9a0d      	ldr	r2, [sp, #52]	@ 0x34
 8002638:	681a      	ldr	r2, [r3, #0]
 800263a:	f422 6280 	bic.w	r2, r2, #1024	@ 0x400
 800263e:	601a      	str	r2, [r3, #0]
 8002640:	685a      	ldr	r2, [r3, #4]
 8002642:	0510      	lsls	r0, r2, #20
 8002644:	d520      	bpl.n	8002688 <HAL_I2C_EV_IRQHandler+0x6d4>
 8002646:	f005 02f7 	and.w	r2, r5, #247	@ 0xf7
 800264a:	2a22      	cmp	r2, #34	@ 0x22
 800264c:	d14a      	bne.n	80026e4 <HAL_I2C_EV_IRQHandler+0x730>
 800264e:	6ba0      	ldr	r0, [r4, #56]	@ 0x38
 8002650:	6802      	ldr	r2, [r0, #0]
 8002652:	6852      	ldr	r2, [r2, #4]
 8002654:	b292      	uxth	r2, r2
 8002656:	8562      	strh	r2, [r4, #42]	@ 0x2a
 8002658:	8d62      	ldrh	r2, [r4, #42]	@ 0x2a
 800265a:	b292      	uxth	r2, r2
 800265c:	b11a      	cbz	r2, 8002666 <HAL_I2C_EV_IRQHandler+0x6b2>
 800265e:	6c22      	ldr	r2, [r4, #64]	@ 0x40
 8002660:	f042 0204 	orr.w	r2, r2, #4
 8002664:	6422      	str	r2, [r4, #64]	@ 0x40
 8002666:	685a      	ldr	r2, [r3, #4]
 8002668:	f422 6200 	bic.w	r2, r2, #2048	@ 0x800
 800266c:	605a      	str	r2, [r3, #4]
 800266e:	f7fe ff2f 	bl	80014d0 <HAL_DMA_GetState>
 8002672:	2801      	cmp	r0, #1
 8002674:	d008      	beq.n	8002688 <HAL_I2C_EV_IRQHandler+0x6d4>
 8002676:	6ba0      	ldr	r0, [r4, #56]	@ 0x38
 8002678:	4b79      	ldr	r3, [pc, #484]	@ (8002860 <HAL_I2C_EV_IRQHandler+0x8ac>)
 800267a:	6343      	str	r3, [r0, #52]	@ 0x34
 800267c:	f7fe fee2 	bl	8001444 <HAL_DMA_Abort_IT>
 8002680:	b110      	cbz	r0, 8002688 <HAL_I2C_EV_IRQHandler+0x6d4>
 8002682:	6ba0      	ldr	r0, [r4, #56]	@ 0x38
 8002684:	6b43      	ldr	r3, [r0, #52]	@ 0x34
 8002686:	4798      	blx	r3
 8002688:	8d63      	ldrh	r3, [r4, #42]	@ 0x2a
 800268a:	b29b      	uxth	r3, r3
 800268c:	b313      	cbz	r3, 80026d4 <HAL_I2C_EV_IRQHandler+0x720>
 800268e:	6823      	ldr	r3, [r4, #0]
 8002690:	695a      	ldr	r2, [r3, #20]
 8002692:	0751      	lsls	r1, r2, #29
 8002694:	d509      	bpl.n	80026aa <HAL_I2C_EV_IRQHandler+0x6f6>
 8002696:	691a      	ldr	r2, [r3, #16]
 8002698:	6a63      	ldr	r3, [r4, #36]	@ 0x24
 800269a:	701a      	strb	r2, [r3, #0]
 800269c:	6a63      	ldr	r3, [r4, #36]	@ 0x24
 800269e:	3301      	adds	r3, #1
 80026a0:	6263      	str	r3, [r4, #36]	@ 0x24
 80026a2:	8d63      	ldrh	r3, [r4, #42]	@ 0x2a
 80026a4:	3b01      	subs	r3, #1
 80026a6:	b29b      	uxth	r3, r3
 80026a8:	8563      	strh	r3, [r4, #42]	@ 0x2a
 80026aa:	6823      	ldr	r3, [r4, #0]
 80026ac:	695a      	ldr	r2, [r3, #20]
 80026ae:	0652      	lsls	r2, r2, #25
 80026b0:	d509      	bpl.n	80026c6 <HAL_I2C_EV_IRQHandler+0x712>
 80026b2:	691a      	ldr	r2, [r3, #16]
 80026b4:	6a63      	ldr	r3, [r4, #36]	@ 0x24
 80026b6:	701a      	strb	r2, [r3, #0]
 80026b8:	6a63      	ldr	r3, [r4, #36]	@ 0x24
 80026ba:	3301      	adds	r3, #1
 80026bc:	6263      	str	r3, [r4, #36]	@ 0x24
 80026be:	8d63      	ldrh	r3, [r4, #42]	@ 0x2a
 80026c0:	3b01      	subs	r3, #1
 80026c2:	b29b      	uxth	r3, r3
 80026c4:	8563      	strh	r3, [r4, #42]	@ 0x2a
 80026c6:	8d63      	ldrh	r3, [r4, #42]	@ 0x2a
 80026c8:	b29b      	uxth	r3, r3
 80026ca:	b11b      	cbz	r3, 80026d4 <HAL_I2C_EV_IRQHandler+0x720>
 80026cc:	6c23      	ldr	r3, [r4, #64]	@ 0x40
 80026ce:	f043 0304 	orr.w	r3, r3, #4
 80026d2:	6423      	str	r3, [r4, #64]	@ 0x40
 80026d4:	6c23      	ldr	r3, [r4, #64]	@ 0x40
 80026d6:	b313      	cbz	r3, 800271e <HAL_I2C_EV_IRQHandler+0x76a>
 80026d8:	4620      	mov	r0, r4
 80026da:	b00f      	add	sp, #60	@ 0x3c
 80026dc:	e8bd 40f0 	ldmia.w	sp!, {r4, r5, r6, r7, lr}
 80026e0:	f7ff bbc0 	b.w	8001e64 <I2C_ITError>
 80026e4:	6b60      	ldr	r0, [r4, #52]	@ 0x34
 80026e6:	6802      	ldr	r2, [r0, #0]
 80026e8:	6852      	ldr	r2, [r2, #4]
 80026ea:	b292      	uxth	r2, r2
 80026ec:	8562      	strh	r2, [r4, #42]	@ 0x2a
 80026ee:	8d62      	ldrh	r2, [r4, #42]	@ 0x2a
 80026f0:	b292      	uxth	r2, r2
 80026f2:	b11a      	cbz	r2, 80026fc <HAL_I2C_EV_IRQHandler+0x748>
 80026f4:	6c22      	ldr	r2, [r4, #64]	@ 0x40
 80026f6:	f042 0204 	orr.w	r2, r2, #4
 80026fa:	6422      	str	r2, [r4, #64]	@ 0x40
 80026fc:	685a      	ldr	r2, [r3, #4]
 80026fe:	f422 6200 	bic.w	r2, r2, #2048	@ 0x800
 8002702:	605a      	str	r2, [r3, #4]
 8002704:	f7fe fee4 	bl	80014d0 <HAL_DMA_GetState>
 8002708:	2801      	cmp	r0, #1
 800270a:	d0bd      	beq.n	8002688 <HAL_I2C_EV_IRQHandler+0x6d4>
 800270c:	6b60      	ldr	r0, [r4, #52]	@ 0x34
 800270e:	4b54      	ldr	r3, [pc, #336]	@ (8002860 <HAL_I2C_EV_IRQHandler+0x8ac>)
 8002710:	6343      	str	r3, [r0, #52]	@ 0x34
 8002712:	f7fe fe97 	bl	8001444 <HAL_DMA_Abort_IT>
 8002716:	2800      	cmp	r0, #0
 8002718:	d0b6      	beq.n	8002688 <HAL_I2C_EV_IRQHandler+0x6d4>
 800271a:	6b60      	ldr	r0, [r4, #52]	@ 0x34
 800271c:	e7b2      	b.n	8002684 <HAL_I2C_EV_IRQHandler+0x6d0>
 800271e:	2d2a      	cmp	r5, #42	@ 0x2a
 8002720:	d106      	bne.n	8002730 <HAL_I2C_EV_IRQHandler+0x77c>
 8002722:	6323      	str	r3, [r4, #48]	@ 0x30
 8002724:	2328      	movs	r3, #40	@ 0x28
 8002726:	4620      	mov	r0, r4
 8002728:	f884 303d 	strb.w	r3, [r4, #61]	@ 0x3d
 800272c:	f7ff fadb 	bl	8001ce6 <HAL_I2C_SlaveRxCpltCallback>
 8002730:	f894 303d 	ldrb.w	r3, [r4, #61]	@ 0x3d
 8002734:	2b28      	cmp	r3, #40	@ 0x28
 8002736:	d10c      	bne.n	8002752 <HAL_I2C_EV_IRQHandler+0x79e>
 8002738:	4b4a      	ldr	r3, [pc, #296]	@ (8002864 <HAL_I2C_EV_IRQHandler+0x8b0>)
 800273a:	2220      	movs	r2, #32
 800273c:	62e3      	str	r3, [r4, #44]	@ 0x2c
 800273e:	2300      	movs	r3, #0
 8002740:	4620      	mov	r0, r4
 8002742:	6323      	str	r3, [r4, #48]	@ 0x30
 8002744:	f884 203d 	strb.w	r2, [r4, #61]	@ 0x3d
 8002748:	f884 303e 	strb.w	r3, [r4, #62]	@ 0x3e
 800274c:	f7ff facd 	bl	8001cea <HAL_I2C_ListenCpltCallback>
 8002750:	e44c      	b.n	8001fec <HAL_I2C_EV_IRQHandler+0x38>
 8002752:	6b23      	ldr	r3, [r4, #48]	@ 0x30
 8002754:	2b22      	cmp	r3, #34	@ 0x22
 8002756:	d002      	beq.n	800275e <HAL_I2C_EV_IRQHandler+0x7aa>
 8002758:	2d22      	cmp	r5, #34	@ 0x22
 800275a:	f47f ac47 	bne.w	8001fec <HAL_I2C_EV_IRQHandler+0x38>
 800275e:	2300      	movs	r3, #0
 8002760:	2220      	movs	r2, #32
 8002762:	6323      	str	r3, [r4, #48]	@ 0x30
 8002764:	f884 203d 	strb.w	r2, [r4, #61]	@ 0x3d
 8002768:	f884 303e 	strb.w	r3, [r4, #62]	@ 0x3e
 800276c:	4620      	mov	r0, r4
 800276e:	f7ff faba 	bl	8001ce6 <HAL_I2C_SlaveRxCpltCallback>
 8002772:	e43b      	b.n	8001fec <HAL_I2C_EV_IRQHandler+0x38>
 8002774:	f001 01f7 	and.w	r1, r1, #247	@ 0xf7
 8002778:	2921      	cmp	r1, #33	@ 0x21
 800277a:	f000 0504 	and.w	r5, r0, #4
 800277e:	d135      	bne.n	80027ec <HAL_I2C_EV_IRQHandler+0x838>
 8002780:	0607      	lsls	r7, r0, #24
 8002782:	d527      	bpl.n	80027d4 <HAL_I2C_EV_IRQHandler+0x820>
 8002784:	0556      	lsls	r6, r2, #21
 8002786:	d525      	bpl.n	80027d4 <HAL_I2C_EV_IRQHandler+0x820>
 8002788:	bb3d      	cbnz	r5, 80027da <HAL_I2C_EV_IRQHandler+0x826>
 800278a:	f894 003d 	ldrb.w	r0, [r4, #61]	@ 0x3d
 800278e:	8d62      	ldrh	r2, [r4, #42]	@ 0x2a
 8002790:	b2c0      	uxtb	r0, r0
 8002792:	b292      	uxth	r2, r2
 8002794:	2a00      	cmp	r2, #0
 8002796:	f43f ac29 	beq.w	8001fec <HAL_I2C_EV_IRQHandler+0x38>
 800279a:	6a62      	ldr	r2, [r4, #36]	@ 0x24
 800279c:	f812 5b01 	ldrb.w	r5, [r2], #1
 80027a0:	611d      	str	r5, [r3, #16]
 80027a2:	6262      	str	r2, [r4, #36]	@ 0x24
 80027a4:	8d62      	ldrh	r2, [r4, #42]	@ 0x2a
 80027a6:	3a01      	subs	r2, #1
 80027a8:	b292      	uxth	r2, r2
 80027aa:	8562      	strh	r2, [r4, #42]	@ 0x2a
 80027ac:	8d62      	ldrh	r2, [r4, #42]	@ 0x2a
 80027ae:	b292      	uxth	r2, r2
 80027b0:	2a00      	cmp	r2, #0
 80027b2:	f47f ac1b 	bne.w	8001fec <HAL_I2C_EV_IRQHandler+0x38>
 80027b6:	2829      	cmp	r0, #41	@ 0x29
 80027b8:	f47f ac18 	bne.w	8001fec <HAL_I2C_EV_IRQHandler+0x38>
 80027bc:	685a      	ldr	r2, [r3, #4]
 80027be:	4620      	mov	r0, r4
 80027c0:	f422 6280 	bic.w	r2, r2, #1024	@ 0x400
 80027c4:	605a      	str	r2, [r3, #4]
 80027c6:	2328      	movs	r3, #40	@ 0x28
 80027c8:	6321      	str	r1, [r4, #48]	@ 0x30
 80027ca:	f884 303d 	strb.w	r3, [r4, #61]	@ 0x3d
 80027ce:	f7ff fa89 	bl	8001ce4 <HAL_I2C_SlaveTxCpltCallback>
 80027d2:	e40b      	b.n	8001fec <HAL_I2C_EV_IRQHandler+0x38>
 80027d4:	2d00      	cmp	r5, #0
 80027d6:	f43f ac09 	beq.w	8001fec <HAL_I2C_EV_IRQHandler+0x38>
 80027da:	0595      	lsls	r5, r2, #22
 80027dc:	f57f ac06 	bpl.w	8001fec <HAL_I2C_EV_IRQHandler+0x38>
 80027e0:	8d62      	ldrh	r2, [r4, #42]	@ 0x2a
 80027e2:	b292      	uxth	r2, r2
 80027e4:	2a00      	cmp	r2, #0
 80027e6:	f43f ac01 	beq.w	8001fec <HAL_I2C_EV_IRQHandler+0x38>
 80027ea:	e5a5      	b.n	8002338 <HAL_I2C_EV_IRQHandler+0x384>
 80027ec:	0640      	lsls	r0, r0, #25
 80027ee:	d527      	bpl.n	8002840 <HAL_I2C_EV_IRQHandler+0x88c>
 80027f0:	0551      	lsls	r1, r2, #21
 80027f2:	d525      	bpl.n	8002840 <HAL_I2C_EV_IRQHandler+0x88c>
 80027f4:	bb3d      	cbnz	r5, 8002846 <HAL_I2C_EV_IRQHandler+0x892>
 80027f6:	f894 203d 	ldrb.w	r2, [r4, #61]	@ 0x3d
 80027fa:	8d61      	ldrh	r1, [r4, #42]	@ 0x2a
 80027fc:	b2d2      	uxtb	r2, r2
 80027fe:	b289      	uxth	r1, r1
 8002800:	2900      	cmp	r1, #0
 8002802:	f43f abf3 	beq.w	8001fec <HAL_I2C_EV_IRQHandler+0x38>
 8002806:	6919      	ldr	r1, [r3, #16]
 8002808:	6a63      	ldr	r3, [r4, #36]	@ 0x24
 800280a:	7019      	strb	r1, [r3, #0]
 800280c:	6a63      	ldr	r3, [r4, #36]	@ 0x24
 800280e:	3301      	adds	r3, #1
 8002810:	6263      	str	r3, [r4, #36]	@ 0x24
 8002812:	8d63      	ldrh	r3, [r4, #42]	@ 0x2a
 8002814:	3b01      	subs	r3, #1
 8002816:	b29b      	uxth	r3, r3
 8002818:	8563      	strh	r3, [r4, #42]	@ 0x2a
 800281a:	8d63      	ldrh	r3, [r4, #42]	@ 0x2a
 800281c:	b29b      	uxth	r3, r3
 800281e:	2b00      	cmp	r3, #0
 8002820:	f47f abe4 	bne.w	8001fec <HAL_I2C_EV_IRQHandler+0x38>
 8002824:	2a2a      	cmp	r2, #42	@ 0x2a
 8002826:	f47f abe1 	bne.w	8001fec <HAL_I2C_EV_IRQHandler+0x38>
 800282a:	6822      	ldr	r2, [r4, #0]
 800282c:	6853      	ldr	r3, [r2, #4]
 800282e:	f423 6380 	bic.w	r3, r3, #1024	@ 0x400
 8002832:	6053      	str	r3, [r2, #4]
 8002834:	2322      	movs	r3, #34	@ 0x22
 8002836:	6323      	str	r3, [r4, #48]	@ 0x30
 8002838:	2328      	movs	r3, #40	@ 0x28
 800283a:	f884 303d 	strb.w	r3, [r4, #61]	@ 0x3d
 800283e:	e795      	b.n	800276c <HAL_I2C_EV_IRQHandler+0x7b8>
 8002840:	2d00      	cmp	r5, #0
 8002842:	f43f abd3 	beq.w	8001fec <HAL_I2C_EV_IRQHandler+0x38>
 8002846:	0592      	lsls	r2, r2, #22
 8002848:	f57f abd0 	bpl.w	8001fec <HAL_I2C_EV_IRQHandler+0x38>
 800284c:	8d62      	ldrh	r2, [r4, #42]	@ 0x2a
 800284e:	b292      	uxth	r2, r2
 8002850:	2a00      	cmp	r2, #0
 8002852:	f43f abcb 	beq.w	8001fec <HAL_I2C_EV_IRQHandler+0x38>
 8002856:	691a      	ldr	r2, [r3, #16]
 8002858:	6a63      	ldr	r3, [r4, #36]	@ 0x24
 800285a:	701a      	strb	r2, [r3, #0]
 800285c:	e649      	b.n	80024f2 <HAL_I2C_EV_IRQHandler+0x53e>
 800285e:	bf00      	nop
 8002860:	08001da5 	.word	0x08001da5
 8002864:	ffff0000 	.word	0xffff0000

08002868 <HAL_RCC_OscConfig>:
 8002868:	e92d 41f3 	stmdb	sp!, {r0, r1, r4, r5, r6, r7, r8, lr}
 800286c:	4605      	mov	r5, r0
 800286e:	b338      	cbz	r0, 80028c0 <HAL_RCC_OscConfig+0x58>
 8002870:	6803      	ldr	r3, [r0, #0]
 8002872:	07db      	lsls	r3, r3, #31
 8002874:	d410      	bmi.n	8002898 <HAL_RCC_OscConfig+0x30>
 8002876:	682b      	ldr	r3, [r5, #0]
 8002878:	079f      	lsls	r7, r3, #30
 800287a:	d45e      	bmi.n	800293a <HAL_RCC_OscConfig+0xd2>
 800287c:	682b      	ldr	r3, [r5, #0]
 800287e:	0719      	lsls	r1, r3, #28
 8002880:	f100 8095 	bmi.w	80029ae <HAL_RCC_OscConfig+0x146>
 8002884:	682b      	ldr	r3, [r5, #0]
 8002886:	075a      	lsls	r2, r3, #29
 8002888:	f100 80c1 	bmi.w	8002a0e <HAL_RCC_OscConfig+0x1a6>
 800288c:	69eb      	ldr	r3, [r5, #28]
 800288e:	2b00      	cmp	r3, #0
 8002890:	f040 812c 	bne.w	8002aec <HAL_RCC_OscConfig+0x284>
 8002894:	2000      	movs	r0, #0
 8002896:	e029      	b.n	80028ec <HAL_RCC_OscConfig+0x84>
 8002898:	4c90      	ldr	r4, [pc, #576]	@ (8002adc <HAL_RCC_OscConfig+0x274>)
 800289a:	6863      	ldr	r3, [r4, #4]
 800289c:	f003 030c 	and.w	r3, r3, #12
 80028a0:	2b04      	cmp	r3, #4
 80028a2:	d007      	beq.n	80028b4 <HAL_RCC_OscConfig+0x4c>
 80028a4:	6863      	ldr	r3, [r4, #4]
 80028a6:	f003 030c 	and.w	r3, r3, #12
 80028aa:	2b08      	cmp	r3, #8
 80028ac:	d10a      	bne.n	80028c4 <HAL_RCC_OscConfig+0x5c>
 80028ae:	6863      	ldr	r3, [r4, #4]
 80028b0:	03de      	lsls	r6, r3, #15
 80028b2:	d507      	bpl.n	80028c4 <HAL_RCC_OscConfig+0x5c>
 80028b4:	6823      	ldr	r3, [r4, #0]
 80028b6:	039c      	lsls	r4, r3, #14
 80028b8:	d5dd      	bpl.n	8002876 <HAL_RCC_OscConfig+0xe>
 80028ba:	686b      	ldr	r3, [r5, #4]
 80028bc:	2b00      	cmp	r3, #0
 80028be:	d1da      	bne.n	8002876 <HAL_RCC_OscConfig+0xe>
 80028c0:	2001      	movs	r0, #1
 80028c2:	e013      	b.n	80028ec <HAL_RCC_OscConfig+0x84>
 80028c4:	686b      	ldr	r3, [r5, #4]
 80028c6:	f5b3 3f80 	cmp.w	r3, #65536	@ 0x10000
 80028ca:	d112      	bne.n	80028f2 <HAL_RCC_OscConfig+0x8a>
 80028cc:	6823      	ldr	r3, [r4, #0]
 80028ce:	f443 3380 	orr.w	r3, r3, #65536	@ 0x10000
 80028d2:	6023      	str	r3, [r4, #0]
 80028d4:	f7fe fbf8 	bl	80010c8 <HAL_GetTick>
 80028d8:	4606      	mov	r6, r0
 80028da:	6823      	ldr	r3, [r4, #0]
 80028dc:	0398      	lsls	r0, r3, #14
 80028de:	d4ca      	bmi.n	8002876 <HAL_RCC_OscConfig+0xe>
 80028e0:	f7fe fbf2 	bl	80010c8 <HAL_GetTick>
 80028e4:	1b80      	subs	r0, r0, r6
 80028e6:	2864      	cmp	r0, #100	@ 0x64
 80028e8:	d9f7      	bls.n	80028da <HAL_RCC_OscConfig+0x72>
 80028ea:	2003      	movs	r0, #3
 80028ec:	b002      	add	sp, #8
 80028ee:	e8bd 81f0 	ldmia.w	sp!, {r4, r5, r6, r7, r8, pc}
 80028f2:	b99b      	cbnz	r3, 800291c <HAL_RCC_OscConfig+0xb4>
 80028f4:	6823      	ldr	r3, [r4, #0]
 80028f6:	f423 3380 	bic.w	r3, r3, #65536	@ 0x10000
 80028fa:	6023      	str	r3, [r4, #0]
 80028fc:	6823      	ldr	r3, [r4, #0]
 80028fe:	f423 2380 	bic.w	r3, r3, #262144	@ 0x40000
 8002902:	6023      	str	r3, [r4, #0]
 8002904:	f7fe fbe0 	bl	80010c8 <HAL_GetTick>
 8002908:	4606      	mov	r6, r0
 800290a:	6823      	ldr	r3, [r4, #0]
 800290c:	0399      	lsls	r1, r3, #14
 800290e:	d5b2      	bpl.n	8002876 <HAL_RCC_OscConfig+0xe>
 8002910:	f7fe fbda 	bl	80010c8 <HAL_GetTick>
 8002914:	1b80      	subs	r0, r0, r6
 8002916:	2864      	cmp	r0, #100	@ 0x64
 8002918:	d9f7      	bls.n	800290a <HAL_RCC_OscConfig+0xa2>
 800291a:	e7e6      	b.n	80028ea <HAL_RCC_OscConfig+0x82>
 800291c:	f5b3 2fa0 	cmp.w	r3, #327680	@ 0x50000
 8002920:	6823      	ldr	r3, [r4, #0]
 8002922:	d103      	bne.n	800292c <HAL_RCC_OscConfig+0xc4>
 8002924:	f443 2380 	orr.w	r3, r3, #262144	@ 0x40000
 8002928:	6023      	str	r3, [r4, #0]
 800292a:	e7cf      	b.n	80028cc <HAL_RCC_OscConfig+0x64>
 800292c:	f423 3380 	bic.w	r3, r3, #65536	@ 0x10000
 8002930:	6023      	str	r3, [r4, #0]
 8002932:	6823      	ldr	r3, [r4, #0]
 8002934:	f423 2380 	bic.w	r3, r3, #262144	@ 0x40000
 8002938:	e7cb      	b.n	80028d2 <HAL_RCC_OscConfig+0x6a>
 800293a:	4c68      	ldr	r4, [pc, #416]	@ (8002adc <HAL_RCC_OscConfig+0x274>)
 800293c:	6863      	ldr	r3, [r4, #4]
 800293e:	f013 0f0c 	tst.w	r3, #12
 8002942:	d007      	beq.n	8002954 <HAL_RCC_OscConfig+0xec>
 8002944:	6863      	ldr	r3, [r4, #4]
 8002946:	f003 030c 	and.w	r3, r3, #12
 800294a:	2b08      	cmp	r3, #8
 800294c:	d110      	bne.n	8002970 <HAL_RCC_OscConfig+0x108>
 800294e:	6863      	ldr	r3, [r4, #4]
 8002950:	03da      	lsls	r2, r3, #15
 8002952:	d40d      	bmi.n	8002970 <HAL_RCC_OscConfig+0x108>
 8002954:	6823      	ldr	r3, [r4, #0]
 8002956:	079b      	lsls	r3, r3, #30
 8002958:	d502      	bpl.n	8002960 <HAL_RCC_OscConfig+0xf8>
 800295a:	692b      	ldr	r3, [r5, #16]
 800295c:	2b01      	cmp	r3, #1
 800295e:	d1af      	bne.n	80028c0 <HAL_RCC_OscConfig+0x58>
 8002960:	6823      	ldr	r3, [r4, #0]
 8002962:	696a      	ldr	r2, [r5, #20]
 8002964:	f023 03f8 	bic.w	r3, r3, #248	@ 0xf8
 8002968:	ea43 03c2 	orr.w	r3, r3, r2, lsl #3
 800296c:	6023      	str	r3, [r4, #0]
 800296e:	e785      	b.n	800287c <HAL_RCC_OscConfig+0x14>
 8002970:	692a      	ldr	r2, [r5, #16]
 8002972:	4b5b      	ldr	r3, [pc, #364]	@ (8002ae0 <HAL_RCC_OscConfig+0x278>)
 8002974:	b16a      	cbz	r2, 8002992 <HAL_RCC_OscConfig+0x12a>
 8002976:	2201      	movs	r2, #1
 8002978:	601a      	str	r2, [r3, #0]
 800297a:	f7fe fba5 	bl	80010c8 <HAL_GetTick>
 800297e:	4606      	mov	r6, r0
 8002980:	6823      	ldr	r3, [r4, #0]
 8002982:	079f      	lsls	r7, r3, #30
 8002984:	d4ec      	bmi.n	8002960 <HAL_RCC_OscConfig+0xf8>
 8002986:	f7fe fb9f 	bl	80010c8 <HAL_GetTick>
 800298a:	1b80      	subs	r0, r0, r6
 800298c:	2802      	cmp	r0, #2
 800298e:	d9f7      	bls.n	8002980 <HAL_RCC_OscConfig+0x118>
 8002990:	e7ab      	b.n	80028ea <HAL_RCC_OscConfig+0x82>
 8002992:	601a      	str	r2, [r3, #0]
 8002994:	f7fe fb98 	bl	80010c8 <HAL_GetTick>
 8002998:	4606      	mov	r6, r0
 800299a:	6823      	ldr	r3, [r4, #0]
 800299c:	0798      	lsls	r0, r3, #30
 800299e:	f57f af6d 	bpl.w	800287c <HAL_RCC_OscConfig+0x14>
 80029a2:	f7fe fb91 	bl	80010c8 <HAL_GetTick>
 80029a6:	1b80      	subs	r0, r0, r6
 80029a8:	2802      	cmp	r0, #2
 80029aa:	d9f6      	bls.n	800299a <HAL_RCC_OscConfig+0x132>
 80029ac:	e79d      	b.n	80028ea <HAL_RCC_OscConfig+0x82>
 80029ae:	69aa      	ldr	r2, [r5, #24]
 80029b0:	4e4a      	ldr	r6, [pc, #296]	@ (8002adc <HAL_RCC_OscConfig+0x274>)
 80029b2:	4b4b      	ldr	r3, [pc, #300]	@ (8002ae0 <HAL_RCC_OscConfig+0x278>)
 80029b4:	b1e2      	cbz	r2, 80029f0 <HAL_RCC_OscConfig+0x188>
 80029b6:	2201      	movs	r2, #1
 80029b8:	f8c3 2480 	str.w	r2, [r3, #1152]	@ 0x480
 80029bc:	f7fe fb84 	bl	80010c8 <HAL_GetTick>
 80029c0:	4604      	mov	r4, r0
 80029c2:	6a73      	ldr	r3, [r6, #36]	@ 0x24
 80029c4:	079b      	lsls	r3, r3, #30
 80029c6:	d50d      	bpl.n	80029e4 <HAL_RCC_OscConfig+0x17c>
 80029c8:	f44f 52fa 	mov.w	r2, #8000	@ 0x1f40
 80029cc:	4b45      	ldr	r3, [pc, #276]	@ (8002ae4 <HAL_RCC_OscConfig+0x27c>)
 80029ce:	681b      	ldr	r3, [r3, #0]
 80029d0:	fbb3 f3f2 	udiv	r3, r3, r2
 80029d4:	9301      	str	r3, [sp, #4]
 80029d6:	bf00      	nop
 80029d8:	9b01      	ldr	r3, [sp, #4]
 80029da:	1e5a      	subs	r2, r3, #1
 80029dc:	9201      	str	r2, [sp, #4]
 80029de:	2b00      	cmp	r3, #0
 80029e0:	d1f9      	bne.n	80029d6 <HAL_RCC_OscConfig+0x16e>
 80029e2:	e74f      	b.n	8002884 <HAL_RCC_OscConfig+0x1c>
 80029e4:	f7fe fb70 	bl	80010c8 <HAL_GetTick>
 80029e8:	1b00      	subs	r0, r0, r4
 80029ea:	2802      	cmp	r0, #2
 80029ec:	d9e9      	bls.n	80029c2 <HAL_RCC_OscConfig+0x15a>
 80029ee:	e77c      	b.n	80028ea <HAL_RCC_OscConfig+0x82>
 80029f0:	f8c3 2480 	str.w	r2, [r3, #1152]	@ 0x480
 80029f4:	f7fe fb68 	bl	80010c8 <HAL_GetTick>
 80029f8:	4604      	mov	r4, r0
 80029fa:	6a73      	ldr	r3, [r6, #36]	@ 0x24
 80029fc:	079f      	lsls	r7, r3, #30
 80029fe:	f57f af41 	bpl.w	8002884 <HAL_RCC_OscConfig+0x1c>
 8002a02:	f7fe fb61 	bl	80010c8 <HAL_GetTick>
 8002a06:	1b00      	subs	r0, r0, r4
 8002a08:	2802      	cmp	r0, #2
 8002a0a:	d9f6      	bls.n	80029fa <HAL_RCC_OscConfig+0x192>
 8002a0c:	e76d      	b.n	80028ea <HAL_RCC_OscConfig+0x82>
 8002a0e:	4c33      	ldr	r4, [pc, #204]	@ (8002adc <HAL_RCC_OscConfig+0x274>)
 8002a10:	69e3      	ldr	r3, [r4, #28]
 8002a12:	00d8      	lsls	r0, r3, #3
 8002a14:	d424      	bmi.n	8002a60 <HAL_RCC_OscConfig+0x1f8>
 8002a16:	2701      	movs	r7, #1
 8002a18:	69e3      	ldr	r3, [r4, #28]
 8002a1a:	f043 5380 	orr.w	r3, r3, #268435456	@ 0x10000000
 8002a1e:	61e3      	str	r3, [r4, #28]
 8002a20:	69e3      	ldr	r3, [r4, #28]
 8002a22:	f003 5380 	and.w	r3, r3, #268435456	@ 0x10000000
 8002a26:	9300      	str	r3, [sp, #0]
 8002a28:	9b00      	ldr	r3, [sp, #0]
 8002a2a:	4e2f      	ldr	r6, [pc, #188]	@ (8002ae8 <HAL_RCC_OscConfig+0x280>)
 8002a2c:	6833      	ldr	r3, [r6, #0]
 8002a2e:	05d9      	lsls	r1, r3, #23
 8002a30:	d518      	bpl.n	8002a64 <HAL_RCC_OscConfig+0x1fc>
 8002a32:	68eb      	ldr	r3, [r5, #12]
 8002a34:	2b01      	cmp	r3, #1
 8002a36:	d126      	bne.n	8002a86 <HAL_RCC_OscConfig+0x21e>
 8002a38:	6a23      	ldr	r3, [r4, #32]
 8002a3a:	f043 0301 	orr.w	r3, r3, #1
 8002a3e:	6223      	str	r3, [r4, #32]
 8002a40:	f7fe fb42 	bl	80010c8 <HAL_GetTick>
 8002a44:	f241 3888 	movw	r8, #5000	@ 0x1388
 8002a48:	4606      	mov	r6, r0
 8002a4a:	6a23      	ldr	r3, [r4, #32]
 8002a4c:	079b      	lsls	r3, r3, #30
 8002a4e:	d53f      	bpl.n	8002ad0 <HAL_RCC_OscConfig+0x268>
 8002a50:	2f00      	cmp	r7, #0
 8002a52:	f43f af1b 	beq.w	800288c <HAL_RCC_OscConfig+0x24>
 8002a56:	69e3      	ldr	r3, [r4, #28]
 8002a58:	f023 5380 	bic.w	r3, r3, #268435456	@ 0x10000000
 8002a5c:	61e3      	str	r3, [r4, #28]
 8002a5e:	e715      	b.n	800288c <HAL_RCC_OscConfig+0x24>
 8002a60:	2700      	movs	r7, #0
 8002a62:	e7e2      	b.n	8002a2a <HAL_RCC_OscConfig+0x1c2>
 8002a64:	6833      	ldr	r3, [r6, #0]
 8002a66:	f443 7380 	orr.w	r3, r3, #256	@ 0x100
 8002a6a:	6033      	str	r3, [r6, #0]
 8002a6c:	f7fe fb2c 	bl	80010c8 <HAL_GetTick>
 8002a70:	4680      	mov	r8, r0
 8002a72:	6833      	ldr	r3, [r6, #0]
 8002a74:	05da      	lsls	r2, r3, #23
 8002a76:	d4dc      	bmi.n	8002a32 <HAL_RCC_OscConfig+0x1ca>
 8002a78:	f7fe fb26 	bl	80010c8 <HAL_GetTick>
 8002a7c:	eba0 0008 	sub.w	r0, r0, r8
 8002a80:	2864      	cmp	r0, #100	@ 0x64
 8002a82:	d9f6      	bls.n	8002a72 <HAL_RCC_OscConfig+0x20a>
 8002a84:	e731      	b.n	80028ea <HAL_RCC_OscConfig+0x82>
 8002a86:	b9ab      	cbnz	r3, 8002ab4 <HAL_RCC_OscConfig+0x24c>
 8002a88:	6a23      	ldr	r3, [r4, #32]
 8002a8a:	f241 3888 	movw	r8, #5000	@ 0x1388
 8002a8e:	f023 0301 	bic.w	r3, r3, #1
 8002a92:	6223      	str	r3, [r4, #32]
 8002a94:	6a23      	ldr	r3, [r4, #32]
 8002a96:	f023 0304 	bic.w	r3, r3, #4
 8002a9a:	6223      	str	r3, [r4, #32]
 8002a9c:	f7fe fb14 	bl	80010c8 <HAL_GetTick>
 8002aa0:	4606      	mov	r6, r0
 8002aa2:	6a23      	ldr	r3, [r4, #32]
 8002aa4:	0798      	lsls	r0, r3, #30
 8002aa6:	d5d3      	bpl.n	8002a50 <HAL_RCC_OscConfig+0x1e8>
 8002aa8:	f7fe fb0e 	bl	80010c8 <HAL_GetTick>
 8002aac:	1b80      	subs	r0, r0, r6
 8002aae:	4540      	cmp	r0, r8
 8002ab0:	d9f7      	bls.n	8002aa2 <HAL_RCC_OscConfig+0x23a>
 8002ab2:	e71a      	b.n	80028ea <HAL_RCC_OscConfig+0x82>
 8002ab4:	2b05      	cmp	r3, #5
 8002ab6:	6a23      	ldr	r3, [r4, #32]
 8002ab8:	d103      	bne.n	8002ac2 <HAL_RCC_OscConfig+0x25a>
 8002aba:	f043 0304 	orr.w	r3, r3, #4
 8002abe:	6223      	str	r3, [r4, #32]
 8002ac0:	e7ba      	b.n	8002a38 <HAL_RCC_OscConfig+0x1d0>
 8002ac2:	f023 0301 	bic.w	r3, r3, #1
 8002ac6:	6223      	str	r3, [r4, #32]
 8002ac8:	6a23      	ldr	r3, [r4, #32]
 8002aca:	f023 0304 	bic.w	r3, r3, #4
 8002ace:	e7b6      	b.n	8002a3e <HAL_RCC_OscConfig+0x1d6>
 8002ad0:	f7fe fafa 	bl	80010c8 <HAL_GetTick>
 8002ad4:	1b80      	subs	r0, r0, r6
 8002ad6:	4540      	cmp	r0, r8
 8002ad8:	d9b7      	bls.n	8002a4a <HAL_RCC_OscConfig+0x1e2>
 8002ada:	e706      	b.n	80028ea <HAL_RCC_OscConfig+0x82>
 8002adc:	40021000 	.word	0x40021000
 8002ae0:	42420000 	.word	0x42420000
 8002ae4:	20000004 	.word	0x20000004
 8002ae8:	40007000 	.word	0x40007000
 8002aec:	4c2a      	ldr	r4, [pc, #168]	@ (8002b98 <HAL_RCC_OscConfig+0x330>)
 8002aee:	6862      	ldr	r2, [r4, #4]
 8002af0:	f002 020c 	and.w	r2, r2, #12
 8002af4:	2a08      	cmp	r2, #8
 8002af6:	d03e      	beq.n	8002b76 <HAL_RCC_OscConfig+0x30e>
 8002af8:	2200      	movs	r2, #0
 8002afa:	2b02      	cmp	r3, #2
 8002afc:	4b27      	ldr	r3, [pc, #156]	@ (8002b9c <HAL_RCC_OscConfig+0x334>)
 8002afe:	661a      	str	r2, [r3, #96]	@ 0x60
 8002b00:	d12c      	bne.n	8002b5c <HAL_RCC_OscConfig+0x2f4>
 8002b02:	f7fe fae1 	bl	80010c8 <HAL_GetTick>
 8002b06:	4606      	mov	r6, r0
 8002b08:	6823      	ldr	r3, [r4, #0]
 8002b0a:	0199      	lsls	r1, r3, #6
 8002b0c:	d420      	bmi.n	8002b50 <HAL_RCC_OscConfig+0x2e8>
 8002b0e:	6a2b      	ldr	r3, [r5, #32]
 8002b10:	f5b3 3f80 	cmp.w	r3, #65536	@ 0x10000
 8002b14:	d105      	bne.n	8002b22 <HAL_RCC_OscConfig+0x2ba>
 8002b16:	6862      	ldr	r2, [r4, #4]
 8002b18:	68a9      	ldr	r1, [r5, #8]
 8002b1a:	f422 3200 	bic.w	r2, r2, #131072	@ 0x20000
 8002b1e:	430a      	orrs	r2, r1
 8002b20:	6062      	str	r2, [r4, #4]
 8002b22:	6a69      	ldr	r1, [r5, #36]	@ 0x24
 8002b24:	6862      	ldr	r2, [r4, #4]
 8002b26:	430b      	orrs	r3, r1
 8002b28:	f422 1274 	bic.w	r2, r2, #3997696	@ 0x3d0000
 8002b2c:	4313      	orrs	r3, r2
 8002b2e:	2201      	movs	r2, #1
 8002b30:	6063      	str	r3, [r4, #4]
 8002b32:	4b1a      	ldr	r3, [pc, #104]	@ (8002b9c <HAL_RCC_OscConfig+0x334>)
 8002b34:	661a      	str	r2, [r3, #96]	@ 0x60
 8002b36:	f7fe fac7 	bl	80010c8 <HAL_GetTick>
 8002b3a:	4605      	mov	r5, r0
 8002b3c:	6823      	ldr	r3, [r4, #0]
 8002b3e:	019a      	lsls	r2, r3, #6
 8002b40:	f53f aea8 	bmi.w	8002894 <HAL_RCC_OscConfig+0x2c>
 8002b44:	f7fe fac0 	bl	80010c8 <HAL_GetTick>
 8002b48:	1b40      	subs	r0, r0, r5
 8002b4a:	2802      	cmp	r0, #2
 8002b4c:	d9f6      	bls.n	8002b3c <HAL_RCC_OscConfig+0x2d4>
 8002b4e:	e6cc      	b.n	80028ea <HAL_RCC_OscConfig+0x82>
 8002b50:	f7fe faba 	bl	80010c8 <HAL_GetTick>
 8002b54:	1b80      	subs	r0, r0, r6
 8002b56:	2802      	cmp	r0, #2
 8002b58:	d9d6      	bls.n	8002b08 <HAL_RCC_OscConfig+0x2a0>
 8002b5a:	e6c6      	b.n	80028ea <HAL_RCC_OscConfig+0x82>
 8002b5c:	f7fe fab4 	bl	80010c8 <HAL_GetTick>
 8002b60:	4605      	mov	r5, r0
 8002b62:	6823      	ldr	r3, [r4, #0]
 8002b64:	019b      	lsls	r3, r3, #6
 8002b66:	f57f ae95 	bpl.w	8002894 <HAL_RCC_OscConfig+0x2c>
 8002b6a:	f7fe faad 	bl	80010c8 <HAL_GetTick>
 8002b6e:	1b40      	subs	r0, r0, r5
 8002b70:	2802      	cmp	r0, #2
 8002b72:	d9f6      	bls.n	8002b62 <HAL_RCC_OscConfig+0x2fa>
 8002b74:	e6b9      	b.n	80028ea <HAL_RCC_OscConfig+0x82>
 8002b76:	2b01      	cmp	r3, #1
 8002b78:	f43f aea2 	beq.w	80028c0 <HAL_RCC_OscConfig+0x58>
 8002b7c:	6860      	ldr	r0, [r4, #4]
 8002b7e:	6a2b      	ldr	r3, [r5, #32]
 8002b80:	f400 3280 	and.w	r2, r0, #65536	@ 0x10000
 8002b84:	429a      	cmp	r2, r3
 8002b86:	f47f ae9b 	bne.w	80028c0 <HAL_RCC_OscConfig+0x58>
 8002b8a:	6a6b      	ldr	r3, [r5, #36]	@ 0x24
 8002b8c:	f400 1070 	and.w	r0, r0, #3932160	@ 0x3c0000
 8002b90:	1ac0      	subs	r0, r0, r3
 8002b92:	bf18      	it	ne
 8002b94:	2001      	movne	r0, #1
 8002b96:	e6a9      	b.n	80028ec <HAL_RCC_OscConfig+0x84>
 8002b98:	40021000 	.word	0x40021000
 8002b9c:	42420000 	.word	0x42420000

08002ba0 <HAL_RCC_GetSysClockFreq>:
 8002ba0:	4a0d      	ldr	r2, [pc, #52]	@ (8002bd8 <HAL_RCC_GetSysClockFreq+0x38>)
 8002ba2:	6853      	ldr	r3, [r2, #4]
 8002ba4:	f003 010c 	and.w	r1, r3, #12
 8002ba8:	2908      	cmp	r1, #8
 8002baa:	d112      	bne.n	8002bd2 <HAL_RCC_GetSysClockFreq+0x32>
 8002bac:	480b      	ldr	r0, [pc, #44]	@ (8002bdc <HAL_RCC_GetSysClockFreq+0x3c>)
 8002bae:	f3c3 4183 	ubfx	r1, r3, #18, #4
 8002bb2:	03db      	lsls	r3, r3, #15
 8002bb4:	5c40      	ldrb	r0, [r0, r1]
 8002bb6:	d509      	bpl.n	8002bcc <HAL_RCC_GetSysClockFreq+0x2c>
 8002bb8:	6853      	ldr	r3, [r2, #4]
 8002bba:	4a09      	ldr	r2, [pc, #36]	@ (8002be0 <HAL_RCC_GetSysClockFreq+0x40>)
 8002bbc:	f3c3 4340 	ubfx	r3, r3, #17, #1
 8002bc0:	4350      	muls	r0, r2
 8002bc2:	4a08      	ldr	r2, [pc, #32]	@ (8002be4 <HAL_RCC_GetSysClockFreq+0x44>)
 8002bc4:	5cd3      	ldrb	r3, [r2, r3]
 8002bc6:	fbb0 f0f3 	udiv	r0, r0, r3
 8002bca:	4770      	bx	lr
 8002bcc:	4b06      	ldr	r3, [pc, #24]	@ (8002be8 <HAL_RCC_GetSysClockFreq+0x48>)
 8002bce:	4358      	muls	r0, r3
 8002bd0:	4770      	bx	lr
 8002bd2:	4803      	ldr	r0, [pc, #12]	@ (8002be0 <HAL_RCC_GetSysClockFreq+0x40>)
 8002bd4:	4770      	bx	lr
 8002bd6:	bf00      	nop
 8002bd8:	40021000 	.word	0x40021000
 8002bdc:	080042fe 	.word	0x080042fe
 8002be0:	007a1200 	.word	0x007a1200
 8002be4:	080042fc 	.word	0x080042fc
 8002be8:	003d0900 	.word	0x003d0900

08002bec <HAL_RCC_ClockConfig>:
 8002bec:	e92d 41f0 	stmdb	sp!, {r4, r5, r6, r7, r8, lr}
 8002bf0:	460d      	mov	r5, r1
 8002bf2:	4604      	mov	r4, r0
 8002bf4:	b910      	cbnz	r0, 8002bfc <HAL_RCC_ClockConfig+0x10>
 8002bf6:	2001      	movs	r0, #1
 8002bf8:	e8bd 81f0 	ldmia.w	sp!, {r4, r5, r6, r7, r8, pc}
 8002bfc:	4a44      	ldr	r2, [pc, #272]	@ (8002d10 <HAL_RCC_ClockConfig+0x124>)
 8002bfe:	6813      	ldr	r3, [r2, #0]
 8002c00:	f003 0307 	and.w	r3, r3, #7
 8002c04:	428b      	cmp	r3, r1
 8002c06:	d328      	bcc.n	8002c5a <HAL_RCC_ClockConfig+0x6e>
 8002c08:	6821      	ldr	r1, [r4, #0]
 8002c0a:	078e      	lsls	r6, r1, #30
 8002c0c:	d430      	bmi.n	8002c70 <HAL_RCC_ClockConfig+0x84>
 8002c0e:	07ca      	lsls	r2, r1, #31
 8002c10:	d443      	bmi.n	8002c9a <HAL_RCC_ClockConfig+0xae>
 8002c12:	4a3f      	ldr	r2, [pc, #252]	@ (8002d10 <HAL_RCC_ClockConfig+0x124>)
 8002c14:	6813      	ldr	r3, [r2, #0]
 8002c16:	f003 0307 	and.w	r3, r3, #7
 8002c1a:	42ab      	cmp	r3, r5
 8002c1c:	d865      	bhi.n	8002cea <HAL_RCC_ClockConfig+0xfe>
 8002c1e:	6822      	ldr	r2, [r4, #0]
 8002c20:	4d3c      	ldr	r5, [pc, #240]	@ (8002d14 <HAL_RCC_ClockConfig+0x128>)
 8002c22:	f012 0f04 	tst.w	r2, #4
 8002c26:	d16c      	bne.n	8002d02 <HAL_RCC_ClockConfig+0x116>
 8002c28:	0713      	lsls	r3, r2, #28
 8002c2a:	d506      	bpl.n	8002c3a <HAL_RCC_ClockConfig+0x4e>
 8002c2c:	686b      	ldr	r3, [r5, #4]
 8002c2e:	6922      	ldr	r2, [r4, #16]
 8002c30:	f423 5360 	bic.w	r3, r3, #14336	@ 0x3800
 8002c34:	ea43 03c2 	orr.w	r3, r3, r2, lsl #3
 8002c38:	606b      	str	r3, [r5, #4]
 8002c3a:	f7ff ffb1 	bl	8002ba0 <HAL_RCC_GetSysClockFreq>
 8002c3e:	686b      	ldr	r3, [r5, #4]
 8002c40:	4a35      	ldr	r2, [pc, #212]	@ (8002d18 <HAL_RCC_ClockConfig+0x12c>)
 8002c42:	f3c3 1303 	ubfx	r3, r3, #4, #4
 8002c46:	5cd3      	ldrb	r3, [r2, r3]
 8002c48:	40d8      	lsrs	r0, r3
 8002c4a:	4b34      	ldr	r3, [pc, #208]	@ (8002d1c <HAL_RCC_ClockConfig+0x130>)
 8002c4c:	6018      	str	r0, [r3, #0]
 8002c4e:	4b34      	ldr	r3, [pc, #208]	@ (8002d20 <HAL_RCC_ClockConfig+0x134>)
 8002c50:	6818      	ldr	r0, [r3, #0]
 8002c52:	f7fe f9f7 	bl	8001044 <HAL_InitTick>
 8002c56:	2000      	movs	r0, #0
 8002c58:	e7ce      	b.n	8002bf8 <HAL_RCC_ClockConfig+0xc>
 8002c5a:	6813      	ldr	r3, [r2, #0]
 8002c5c:	f023 0307 	bic.w	r3, r3, #7
 8002c60:	430b      	orrs	r3, r1
 8002c62:	6013      	str	r3, [r2, #0]
 8002c64:	6813      	ldr	r3, [r2, #0]
 8002c66:	f003 0307 	and.w	r3, r3, #7
 8002c6a:	428b      	cmp	r3, r1
 8002c6c:	d1c3      	bne.n	8002bf6 <HAL_RCC_ClockConfig+0xa>
 8002c6e:	e7cb      	b.n	8002c08 <HAL_RCC_ClockConfig+0x1c>
 8002c70:	4b28      	ldr	r3, [pc, #160]	@ (8002d14 <HAL_RCC_ClockConfig+0x128>)
 8002c72:	f011 0f04 	tst.w	r1, #4
 8002c76:	bf1e      	ittt	ne
 8002c78:	685a      	ldrne	r2, [r3, #4]
 8002c7a:	f442 62e0 	orrne.w	r2, r2, #1792	@ 0x700
 8002c7e:	605a      	strne	r2, [r3, #4]
 8002c80:	0708      	lsls	r0, r1, #28
 8002c82:	bf42      	ittt	mi
 8002c84:	685a      	ldrmi	r2, [r3, #4]
 8002c86:	f442 5260 	orrmi.w	r2, r2, #14336	@ 0x3800
 8002c8a:	605a      	strmi	r2, [r3, #4]
 8002c8c:	685a      	ldr	r2, [r3, #4]
 8002c8e:	68a0      	ldr	r0, [r4, #8]
 8002c90:	f022 02f0 	bic.w	r2, r2, #240	@ 0xf0
 8002c94:	4302      	orrs	r2, r0
 8002c96:	605a      	str	r2, [r3, #4]
 8002c98:	e7b9      	b.n	8002c0e <HAL_RCC_ClockConfig+0x22>
 8002c9a:	6862      	ldr	r2, [r4, #4]
 8002c9c:	4e1d      	ldr	r6, [pc, #116]	@ (8002d14 <HAL_RCC_ClockConfig+0x128>)
 8002c9e:	2a01      	cmp	r2, #1
 8002ca0:	6833      	ldr	r3, [r6, #0]
 8002ca2:	d11a      	bne.n	8002cda <HAL_RCC_ClockConfig+0xee>
 8002ca4:	f413 3f00 	tst.w	r3, #131072	@ 0x20000
 8002ca8:	d0a5      	beq.n	8002bf6 <HAL_RCC_ClockConfig+0xa>
 8002caa:	6873      	ldr	r3, [r6, #4]
 8002cac:	f241 3888 	movw	r8, #5000	@ 0x1388
 8002cb0:	f023 0303 	bic.w	r3, r3, #3
 8002cb4:	4313      	orrs	r3, r2
 8002cb6:	6073      	str	r3, [r6, #4]
 8002cb8:	f7fe fa06 	bl	80010c8 <HAL_GetTick>
 8002cbc:	4607      	mov	r7, r0
 8002cbe:	6873      	ldr	r3, [r6, #4]
 8002cc0:	6862      	ldr	r2, [r4, #4]
 8002cc2:	f003 030c 	and.w	r3, r3, #12
 8002cc6:	ebb3 0f82 	cmp.w	r3, r2, lsl #2
 8002cca:	d0a2      	beq.n	8002c12 <HAL_RCC_ClockConfig+0x26>
 8002ccc:	f7fe f9fc 	bl	80010c8 <HAL_GetTick>
 8002cd0:	1bc0      	subs	r0, r0, r7
 8002cd2:	4540      	cmp	r0, r8
 8002cd4:	d9f3      	bls.n	8002cbe <HAL_RCC_ClockConfig+0xd2>
 8002cd6:	2003      	movs	r0, #3
 8002cd8:	e78e      	b.n	8002bf8 <HAL_RCC_ClockConfig+0xc>
 8002cda:	2a02      	cmp	r2, #2
 8002cdc:	d102      	bne.n	8002ce4 <HAL_RCC_ClockConfig+0xf8>
 8002cde:	f013 7f00 	tst.w	r3, #33554432	@ 0x2000000
 8002ce2:	e7e1      	b.n	8002ca8 <HAL_RCC_ClockConfig+0xbc>
 8002ce4:	f013 0f02 	tst.w	r3, #2
 8002ce8:	e7de      	b.n	8002ca8 <HAL_RCC_ClockConfig+0xbc>
 8002cea:	6813      	ldr	r3, [r2, #0]
 8002cec:	f023 0307 	bic.w	r3, r3, #7
 8002cf0:	432b      	orrs	r3, r5
 8002cf2:	6013      	str	r3, [r2, #0]
 8002cf4:	6813      	ldr	r3, [r2, #0]
 8002cf6:	f003 0307 	and.w	r3, r3, #7
 8002cfa:	42ab      	cmp	r3, r5
 8002cfc:	f47f af7b 	bne.w	8002bf6 <HAL_RCC_ClockConfig+0xa>
 8002d00:	e78d      	b.n	8002c1e <HAL_RCC_ClockConfig+0x32>
 8002d02:	686b      	ldr	r3, [r5, #4]
 8002d04:	68e1      	ldr	r1, [r4, #12]
 8002d06:	f423 63e0 	bic.w	r3, r3, #1792	@ 0x700
 8002d0a:	430b      	orrs	r3, r1
 8002d0c:	606b      	str	r3, [r5, #4]
 8002d0e:	e78b      	b.n	8002c28 <HAL_RCC_ClockConfig+0x3c>
 8002d10:	40022000 	.word	0x40022000
 8002d14:	40021000 	.word	0x40021000
 8002d18:	080042ec 	.word	0x080042ec
 8002d1c:	20000004 	.word	0x20000004
 8002d20:	2000000c 	.word	0x2000000c

08002d24 <HAL_RCC_GetPCLK1Freq>:
 8002d24:	4b04      	ldr	r3, [pc, #16]	@ (8002d38 <HAL_RCC_GetPCLK1Freq+0x14>)
 8002d26:	4a05      	ldr	r2, [pc, #20]	@ (8002d3c <HAL_RCC_GetPCLK1Freq+0x18>)
 8002d28:	685b      	ldr	r3, [r3, #4]
 8002d2a:	f3c3 2302 	ubfx	r3, r3, #8, #3
 8002d2e:	5cd3      	ldrb	r3, [r2, r3]
 8002d30:	4a03      	ldr	r2, [pc, #12]	@ (8002d40 <HAL_RCC_GetPCLK1Freq+0x1c>)
 8002d32:	6810      	ldr	r0, [r2, #0]
 8002d34:	40d8      	lsrs	r0, r3
 8002d36:	4770      	bx	lr
 8002d38:	40021000 	.word	0x40021000
 8002d3c:	080042e4 	.word	0x080042e4
 8002d40:	20000004 	.word	0x20000004

08002d44 <HAL_RCC_GetPCLK2Freq>:
 8002d44:	4b04      	ldr	r3, [pc, #16]	@ (8002d58 <HAL_RCC_GetPCLK2Freq+0x14>)
 8002d46:	4a05      	ldr	r2, [pc, #20]	@ (8002d5c <HAL_RCC_GetPCLK2Freq+0x18>)
 8002d48:	685b      	ldr	r3, [r3, #4]
 8002d4a:	f3c3 23c2 	ubfx	r3, r3, #11, #3
 8002d4e:	5cd3      	ldrb	r3, [r2, r3]
 8002d50:	4a03      	ldr	r2, [pc, #12]	@ (8002d60 <HAL_RCC_GetPCLK2Freq+0x1c>)
 8002d52:	6810      	ldr	r0, [r2, #0]
 8002d54:	40d8      	lsrs	r0, r3
 8002d56:	4770      	bx	lr
 8002d58:	40021000 	.word	0x40021000
 8002d5c:	080042e4 	.word	0x080042e4
 8002d60:	20000004 	.word	0x20000004

08002d64 <HAL_RCCEx_PeriphCLKConfig>:
 8002d64:	6803      	ldr	r3, [r0, #0]
 8002d66:	e92d 41f3 	stmdb	sp!, {r0, r1, r4, r5, r6, r7, r8, lr}
 8002d6a:	4605      	mov	r5, r0
 8002d6c:	07d8      	lsls	r0, r3, #31
 8002d6e:	d520      	bpl.n	8002db2 <HAL_RCCEx_PeriphCLKConfig+0x4e>
 8002d70:	4c36      	ldr	r4, [pc, #216]	@ (8002e4c <HAL_RCCEx_PeriphCLKConfig+0xe8>)
 8002d72:	69e3      	ldr	r3, [r4, #28]
 8002d74:	00d9      	lsls	r1, r3, #3
 8002d76:	d42a      	bmi.n	8002dce <HAL_RCCEx_PeriphCLKConfig+0x6a>
 8002d78:	2601      	movs	r6, #1
 8002d7a:	69e3      	ldr	r3, [r4, #28]
 8002d7c:	f043 5380 	orr.w	r3, r3, #268435456	@ 0x10000000
 8002d80:	61e3      	str	r3, [r4, #28]
 8002d82:	69e3      	ldr	r3, [r4, #28]
 8002d84:	f003 5380 	and.w	r3, r3, #268435456	@ 0x10000000
 8002d88:	9301      	str	r3, [sp, #4]
 8002d8a:	9b01      	ldr	r3, [sp, #4]
 8002d8c:	4f30      	ldr	r7, [pc, #192]	@ (8002e50 <HAL_RCCEx_PeriphCLKConfig+0xec>)
 8002d8e:	683b      	ldr	r3, [r7, #0]
 8002d90:	05da      	lsls	r2, r3, #23
 8002d92:	d51e      	bpl.n	8002dd2 <HAL_RCCEx_PeriphCLKConfig+0x6e>
 8002d94:	6a23      	ldr	r3, [r4, #32]
 8002d96:	f413 7340 	ands.w	r3, r3, #768	@ 0x300
 8002d9a:	d12e      	bne.n	8002dfa <HAL_RCCEx_PeriphCLKConfig+0x96>
 8002d9c:	6a23      	ldr	r3, [r4, #32]
 8002d9e:	686a      	ldr	r2, [r5, #4]
 8002da0:	f423 7340 	bic.w	r3, r3, #768	@ 0x300
 8002da4:	4313      	orrs	r3, r2
 8002da6:	6223      	str	r3, [r4, #32]
 8002da8:	b11e      	cbz	r6, 8002db2 <HAL_RCCEx_PeriphCLKConfig+0x4e>
 8002daa:	69e3      	ldr	r3, [r4, #28]
 8002dac:	f023 5380 	bic.w	r3, r3, #268435456	@ 0x10000000
 8002db0:	61e3      	str	r3, [r4, #28]
 8002db2:	682a      	ldr	r2, [r5, #0]
 8002db4:	0791      	lsls	r1, r2, #30
 8002db6:	d506      	bpl.n	8002dc6 <HAL_RCCEx_PeriphCLKConfig+0x62>
 8002db8:	4924      	ldr	r1, [pc, #144]	@ (8002e4c <HAL_RCCEx_PeriphCLKConfig+0xe8>)
 8002dba:	68a8      	ldr	r0, [r5, #8]
 8002dbc:	684b      	ldr	r3, [r1, #4]
 8002dbe:	f423 4340 	bic.w	r3, r3, #49152	@ 0xc000
 8002dc2:	4303      	orrs	r3, r0
 8002dc4:	604b      	str	r3, [r1, #4]
 8002dc6:	06d3      	lsls	r3, r2, #27
 8002dc8:	d437      	bmi.n	8002e3a <HAL_RCCEx_PeriphCLKConfig+0xd6>
 8002dca:	2000      	movs	r0, #0
 8002dcc:	e012      	b.n	8002df4 <HAL_RCCEx_PeriphCLKConfig+0x90>
 8002dce:	2600      	movs	r6, #0
 8002dd0:	e7dc      	b.n	8002d8c <HAL_RCCEx_PeriphCLKConfig+0x28>
 8002dd2:	683b      	ldr	r3, [r7, #0]
 8002dd4:	f443 7380 	orr.w	r3, r3, #256	@ 0x100
 8002dd8:	603b      	str	r3, [r7, #0]
 8002dda:	f7fe f975 	bl	80010c8 <HAL_GetTick>
 8002dde:	4680      	mov	r8, r0
 8002de0:	683b      	ldr	r3, [r7, #0]
 8002de2:	05db      	lsls	r3, r3, #23
 8002de4:	d4d6      	bmi.n	8002d94 <HAL_RCCEx_PeriphCLKConfig+0x30>
 8002de6:	f7fe f96f 	bl	80010c8 <HAL_GetTick>
 8002dea:	eba0 0008 	sub.w	r0, r0, r8
 8002dee:	2864      	cmp	r0, #100	@ 0x64
 8002df0:	d9f6      	bls.n	8002de0 <HAL_RCCEx_PeriphCLKConfig+0x7c>
 8002df2:	2003      	movs	r0, #3
 8002df4:	b002      	add	sp, #8
 8002df6:	e8bd 81f0 	ldmia.w	sp!, {r4, r5, r6, r7, r8, pc}
 8002dfa:	686a      	ldr	r2, [r5, #4]
 8002dfc:	f402 7240 	and.w	r2, r2, #768	@ 0x300
 8002e00:	429a      	cmp	r2, r3
 8002e02:	d0cb      	beq.n	8002d9c <HAL_RCCEx_PeriphCLKConfig+0x38>
 8002e04:	2001      	movs	r0, #1
 8002e06:	4a13      	ldr	r2, [pc, #76]	@ (8002e54 <HAL_RCCEx_PeriphCLKConfig+0xf0>)
 8002e08:	6a23      	ldr	r3, [r4, #32]
 8002e0a:	f8c2 0440 	str.w	r0, [r2, #1088]	@ 0x440
 8002e0e:	2000      	movs	r0, #0
 8002e10:	f423 7140 	bic.w	r1, r3, #768	@ 0x300
 8002e14:	07df      	lsls	r7, r3, #31
 8002e16:	f8c2 0440 	str.w	r0, [r2, #1088]	@ 0x440
 8002e1a:	6221      	str	r1, [r4, #32]
 8002e1c:	d5be      	bpl.n	8002d9c <HAL_RCCEx_PeriphCLKConfig+0x38>
 8002e1e:	f7fe f953 	bl	80010c8 <HAL_GetTick>
 8002e22:	f241 3888 	movw	r8, #5000	@ 0x1388
 8002e26:	4607      	mov	r7, r0
 8002e28:	6a23      	ldr	r3, [r4, #32]
 8002e2a:	0798      	lsls	r0, r3, #30
 8002e2c:	d4b6      	bmi.n	8002d9c <HAL_RCCEx_PeriphCLKConfig+0x38>
 8002e2e:	f7fe f94b 	bl	80010c8 <HAL_GetTick>
 8002e32:	1bc0      	subs	r0, r0, r7
 8002e34:	4540      	cmp	r0, r8
 8002e36:	d9f7      	bls.n	8002e28 <HAL_RCCEx_PeriphCLKConfig+0xc4>
 8002e38:	e7db      	b.n	8002df2 <HAL_RCCEx_PeriphCLKConfig+0x8e>
 8002e3a:	4a04      	ldr	r2, [pc, #16]	@ (8002e4c <HAL_RCCEx_PeriphCLKConfig+0xe8>)
 8002e3c:	68e9      	ldr	r1, [r5, #12]
 8002e3e:	6853      	ldr	r3, [r2, #4]
 8002e40:	f423 0380 	bic.w	r3, r3, #4194304	@ 0x400000
 8002e44:	430b      	orrs	r3, r1
 8002e46:	6053      	str	r3, [r2, #4]
 8002e48:	e7bf      	b.n	8002dca <HAL_RCCEx_PeriphCLKConfig+0x66>
 8002e4a:	bf00      	nop
 8002e4c:	40021000 	.word	0x40021000
 8002e50:	40007000 	.word	0x40007000
 8002e54:	42420000 	.word	0x42420000

08002e58 <TIM_OC1_SetConfig>:
 8002e58:	6a03      	ldr	r3, [r0, #32]
 8002e5a:	6a02      	ldr	r2, [r0, #32]
 8002e5c:	b570      	push	{r4, r5, r6, lr}
 8002e5e:	f022 0201 	bic.w	r2, r2, #1
 8002e62:	6202      	str	r2, [r0, #32]
 8002e64:	6844      	ldr	r4, [r0, #4]
 8002e66:	6982      	ldr	r2, [r0, #24]
 8002e68:	680d      	ldr	r5, [r1, #0]
 8002e6a:	f022 0273 	bic.w	r2, r2, #115	@ 0x73
 8002e6e:	432a      	orrs	r2, r5
 8002e70:	688d      	ldr	r5, [r1, #8]
 8002e72:	f023 0302 	bic.w	r3, r3, #2
 8002e76:	432b      	orrs	r3, r5
 8002e78:	4d0a      	ldr	r5, [pc, #40]	@ (8002ea4 <TIM_OC1_SetConfig+0x4c>)
 8002e7a:	42a8      	cmp	r0, r5
 8002e7c:	d10b      	bne.n	8002e96 <TIM_OC1_SetConfig+0x3e>
 8002e7e:	68cd      	ldr	r5, [r1, #12]
 8002e80:	f023 0308 	bic.w	r3, r3, #8
 8002e84:	432b      	orrs	r3, r5
 8002e86:	f424 7440 	bic.w	r4, r4, #768	@ 0x300
 8002e8a:	e9d1 5605 	ldrd	r5, r6, [r1, #20]
 8002e8e:	4335      	orrs	r5, r6
 8002e90:	f023 0304 	bic.w	r3, r3, #4
 8002e94:	432c      	orrs	r4, r5
 8002e96:	6044      	str	r4, [r0, #4]
 8002e98:	6182      	str	r2, [r0, #24]
 8002e9a:	684a      	ldr	r2, [r1, #4]
 8002e9c:	6342      	str	r2, [r0, #52]	@ 0x34
 8002e9e:	6203      	str	r3, [r0, #32]
 8002ea0:	bd70      	pop	{r4, r5, r6, pc}
 8002ea2:	bf00      	nop
 8002ea4:	40012c00 	.word	0x40012c00

08002ea8 <TIM_OC3_SetConfig>:
 8002ea8:	6a03      	ldr	r3, [r0, #32]
 8002eaa:	6a02      	ldr	r2, [r0, #32]
 8002eac:	b570      	push	{r4, r5, r6, lr}
 8002eae:	f422 7280 	bic.w	r2, r2, #256	@ 0x100
 8002eb2:	6202      	str	r2, [r0, #32]
 8002eb4:	6844      	ldr	r4, [r0, #4]
 8002eb6:	69c2      	ldr	r2, [r0, #28]
 8002eb8:	680d      	ldr	r5, [r1, #0]
 8002eba:	f022 0273 	bic.w	r2, r2, #115	@ 0x73
 8002ebe:	432a      	orrs	r2, r5
 8002ec0:	688d      	ldr	r5, [r1, #8]
 8002ec2:	f423 7300 	bic.w	r3, r3, #512	@ 0x200
 8002ec6:	ea43 2305 	orr.w	r3, r3, r5, lsl #8
 8002eca:	4d0b      	ldr	r5, [pc, #44]	@ (8002ef8 <TIM_OC3_SetConfig+0x50>)
 8002ecc:	42a8      	cmp	r0, r5
 8002ece:	d10d      	bne.n	8002eec <TIM_OC3_SetConfig+0x44>
 8002ed0:	68cd      	ldr	r5, [r1, #12]
 8002ed2:	f423 6300 	bic.w	r3, r3, #2048	@ 0x800
 8002ed6:	ea43 2305 	orr.w	r3, r3, r5, lsl #8
 8002eda:	f424 5440 	bic.w	r4, r4, #12288	@ 0x3000
 8002ede:	e9d1 5605 	ldrd	r5, r6, [r1, #20]
 8002ee2:	4335      	orrs	r5, r6
 8002ee4:	f423 6380 	bic.w	r3, r3, #1024	@ 0x400
 8002ee8:	ea44 1405 	orr.w	r4, r4, r5, lsl #4
 8002eec:	6044      	str	r4, [r0, #4]
 8002eee:	61c2      	str	r2, [r0, #28]
 8002ef0:	684a      	ldr	r2, [r1, #4]
 8002ef2:	63c2      	str	r2, [r0, #60]	@ 0x3c
 8002ef4:	6203      	str	r3, [r0, #32]
 8002ef6:	bd70      	pop	{r4, r5, r6, pc}
 8002ef8:	40012c00 	.word	0x40012c00

08002efc <TIM_OC4_SetConfig>:
 8002efc:	6a03      	ldr	r3, [r0, #32]
 8002efe:	6a02      	ldr	r2, [r0, #32]
 8002f00:	b530      	push	{r4, r5, lr}
 8002f02:	f422 5280 	bic.w	r2, r2, #4096	@ 0x1000
 8002f06:	6202      	str	r2, [r0, #32]
 8002f08:	6844      	ldr	r4, [r0, #4]
 8002f0a:	69c2      	ldr	r2, [r0, #28]
 8002f0c:	680d      	ldr	r5, [r1, #0]
 8002f0e:	f422 42e6 	bic.w	r2, r2, #29440	@ 0x7300
 8002f12:	ea42 2205 	orr.w	r2, r2, r5, lsl #8
 8002f16:	688d      	ldr	r5, [r1, #8]
 8002f18:	f423 5300 	bic.w	r3, r3, #8192	@ 0x2000
 8002f1c:	ea43 3305 	orr.w	r3, r3, r5, lsl #12
 8002f20:	4d06      	ldr	r5, [pc, #24]	@ (8002f3c <TIM_OC4_SetConfig+0x40>)
 8002f22:	42a8      	cmp	r0, r5
 8002f24:	bf02      	ittt	eq
 8002f26:	694d      	ldreq	r5, [r1, #20]
 8002f28:	f424 4480 	biceq.w	r4, r4, #16384	@ 0x4000
 8002f2c:	ea44 1485 	orreq.w	r4, r4, r5, lsl #6
 8002f30:	6044      	str	r4, [r0, #4]
 8002f32:	61c2      	str	r2, [r0, #28]
 8002f34:	684a      	ldr	r2, [r1, #4]
 8002f36:	6402      	str	r2, [r0, #64]	@ 0x40
 8002f38:	6203      	str	r3, [r0, #32]
 8002f3a:	bd30      	pop	{r4, r5, pc}
 8002f3c:	40012c00 	.word	0x40012c00

08002f40 <HAL_TIM_PWM_MspInit>:
 8002f40:	4770      	bx	lr
	...

08002f44 <TIM_Base_SetConfig>:
 8002f44:	4a17      	ldr	r2, [pc, #92]	@ (8002fa4 <TIM_Base_SetConfig+0x60>)
 8002f46:	6803      	ldr	r3, [r0, #0]
 8002f48:	4290      	cmp	r0, r2
 8002f4a:	d00a      	beq.n	8002f62 <TIM_Base_SetConfig+0x1e>
 8002f4c:	f1b0 4f80 	cmp.w	r0, #1073741824	@ 0x40000000
 8002f50:	d007      	beq.n	8002f62 <TIM_Base_SetConfig+0x1e>
 8002f52:	f5a2 3294 	sub.w	r2, r2, #75776	@ 0x12800
 8002f56:	4290      	cmp	r0, r2
 8002f58:	d003      	beq.n	8002f62 <TIM_Base_SetConfig+0x1e>
 8002f5a:	f502 6280 	add.w	r2, r2, #1024	@ 0x400
 8002f5e:	4290      	cmp	r0, r2
 8002f60:	d107      	bne.n	8002f72 <TIM_Base_SetConfig+0x2e>
 8002f62:	684a      	ldr	r2, [r1, #4]
 8002f64:	f023 0370 	bic.w	r3, r3, #112	@ 0x70
 8002f68:	4313      	orrs	r3, r2
 8002f6a:	68ca      	ldr	r2, [r1, #12]
 8002f6c:	f423 7340 	bic.w	r3, r3, #768	@ 0x300
 8002f70:	4313      	orrs	r3, r2
 8002f72:	694a      	ldr	r2, [r1, #20]
 8002f74:	f023 0380 	bic.w	r3, r3, #128	@ 0x80
 8002f78:	4313      	orrs	r3, r2
 8002f7a:	6003      	str	r3, [r0, #0]
 8002f7c:	688b      	ldr	r3, [r1, #8]
 8002f7e:	62c3      	str	r3, [r0, #44]	@ 0x2c
 8002f80:	680b      	ldr	r3, [r1, #0]
 8002f82:	6283      	str	r3, [r0, #40]	@ 0x28
 8002f84:	4b07      	ldr	r3, [pc, #28]	@ (8002fa4 <TIM_Base_SetConfig+0x60>)
 8002f86:	4298      	cmp	r0, r3
 8002f88:	bf04      	itt	eq
 8002f8a:	690b      	ldreq	r3, [r1, #16]
 8002f8c:	6303      	streq	r3, [r0, #48]	@ 0x30
 8002f8e:	2301      	movs	r3, #1
 8002f90:	6143      	str	r3, [r0, #20]
 8002f92:	6903      	ldr	r3, [r0, #16]
 8002f94:	07db      	lsls	r3, r3, #31
 8002f96:	bf42      	ittt	mi
 8002f98:	6903      	ldrmi	r3, [r0, #16]
 8002f9a:	f023 0301 	bicmi.w	r3, r3, #1
 8002f9e:	6103      	strmi	r3, [r0, #16]
 8002fa0:	4770      	bx	lr
 8002fa2:	bf00      	nop
 8002fa4:	40012c00 	.word	0x40012c00

08002fa8 <HAL_TIM_Base_Init>:
 8002fa8:	b510      	push	{r4, lr}
 8002faa:	4604      	mov	r4, r0
 8002fac:	b330      	cbz	r0, 8002ffc <HAL_TIM_Base_Init+0x54>
 8002fae:	f890 303d 	ldrb.w	r3, [r0, #61]	@ 0x3d
 8002fb2:	f003 02ff 	and.w	r2, r3, #255	@ 0xff
 8002fb6:	b91b      	cbnz	r3, 8002fc0 <HAL_TIM_Base_Init+0x18>
 8002fb8:	f880 203c 	strb.w	r2, [r0, #60]	@ 0x3c
 8002fbc:	f7fd ff35 	bl	8000e2a <HAL_TIM_Base_MspInit>
 8002fc0:	2302      	movs	r3, #2
 8002fc2:	6820      	ldr	r0, [r4, #0]
 8002fc4:	f884 303d 	strb.w	r3, [r4, #61]	@ 0x3d
 8002fc8:	1d21      	adds	r1, r4, #4
 8002fca:	f7ff ffbb 	bl	8002f44 <TIM_Base_SetConfig>
 8002fce:	2301      	movs	r3, #1
 8002fd0:	2000      	movs	r0, #0
 8002fd2:	f884 3046 	strb.w	r3, [r4, #70]	@ 0x46
 8002fd6:	f884 303e 	strb.w	r3, [r4, #62]	@ 0x3e
 8002fda:	f884 303f 	strb.w	r3, [r4, #63]	@ 0x3f
 8002fde:	f884 3040 	strb.w	r3, [r4, #64]	@ 0x40
 8002fe2:	f884 3041 	strb.w	r3, [r4, #65]	@ 0x41
 8002fe6:	f884 3042 	strb.w	r3, [r4, #66]	@ 0x42
 8002fea:	f884 3043 	strb.w	r3, [r4, #67]	@ 0x43
 8002fee:	f884 3044 	strb.w	r3, [r4, #68]	@ 0x44
 8002ff2:	f884 3045 	strb.w	r3, [r4, #69]	@ 0x45
 8002ff6:	f884 303d 	strb.w	r3, [r4, #61]	@ 0x3d
 8002ffa:	bd10      	pop	{r4, pc}
 8002ffc:	2001      	movs	r0, #1
 8002ffe:	e7fc      	b.n	8002ffa <HAL_TIM_Base_Init+0x52>

08003000 <HAL_TIM_PWM_Init>:
 8003000:	b510      	push	{r4, lr}
 8003002:	4604      	mov	r4, r0
 8003004:	b330      	cbz	r0, 8003054 <HAL_TIM_PWM_Init+0x54>
 8003006:	f890 303d 	ldrb.w	r3, [r0, #61]	@ 0x3d
 800300a:	f003 02ff 	and.w	r2, r3, #255	@ 0xff
 800300e:	b91b      	cbnz	r3, 8003018 <HAL_TIM_PWM_Init+0x18>
 8003010:	f880 203c 	strb.w	r2, [r0, #60]	@ 0x3c
 8003014:	f7ff ff94 	bl	8002f40 <HAL_TIM_PWM_MspInit>
 8003018:	2302      	movs	r3, #2
 800301a:	6820      	ldr	r0, [r4, #0]
 800301c:	f884 303d 	strb.w	r3, [r4, #61]	@ 0x3d
 8003020:	1d21      	adds	r1, r4, #4
 8003022:	f7ff ff8f 	bl	8002f44 <TIM_Base_SetConfig>
 8003026:	2301      	movs	r3, #1
 8003028:	2000      	movs	r0, #0
 800302a:	f884 3046 	strb.w	r3, [r4, #70]	@ 0x46
 800302e:	f884 303e 	strb.w	r3, [r4, #62]	@ 0x3e
 8003032:	f884 303f 	strb.w	r3, [r4, #63]	@ 0x3f
 8003036:	f884 3040 	strb.w	r3, [r4, #64]	@ 0x40
 800303a:	f884 3041 	strb.w	r3, [r4, #65]	@ 0x41
 800303e:	f884 3042 	strb.w	r3, [r4, #66]	@ 0x42
 8003042:	f884 3043 	strb.w	r3, [r4, #67]	@ 0x43
 8003046:	f884 3044 	strb.w	r3, [r4, #68]	@ 0x44
 800304a:	f884 3045 	strb.w	r3, [r4, #69]	@ 0x45
 800304e:	f884 303d 	strb.w	r3, [r4, #61]	@ 0x3d
 8003052:	bd10      	pop	{r4, pc}
 8003054:	2001      	movs	r0, #1
 8003056:	e7fc      	b.n	8003052 <HAL_TIM_PWM_Init+0x52>

08003058 <TIM_OC2_SetConfig>:
 8003058:	6a03      	ldr	r3, [r0, #32]
 800305a:	6a02      	ldr	r2, [r0, #32]
 800305c:	b570      	push	{r4, r5, r6, lr}
 800305e:	f022 0210 	bic.w	r2, r2, #16
 8003062:	6202      	str	r2, [r0, #32]
 8003064:	6844      	ldr	r4, [r0, #4]
 8003066:	6982      	ldr	r2, [r0, #24]
 8003068:	680d      	ldr	r5, [r1, #0]
 800306a:	f422 42e6 	bic.w	r2, r2, #29440	@ 0x7300
 800306e:	ea42 2205 	orr.w	r2, r2, r5, lsl #8
 8003072:	688d      	ldr	r5, [r1, #8]
 8003074:	f023 0320 	bic.w	r3, r3, #32
 8003078:	ea43 1305 	orr.w	r3, r3, r5, lsl #4
 800307c:	4d0b      	ldr	r5, [pc, #44]	@ (80030ac <TIM_OC2_SetConfig+0x54>)
 800307e:	42a8      	cmp	r0, r5
 8003080:	d10d      	bne.n	800309e <TIM_OC2_SetConfig+0x46>
 8003082:	68cd      	ldr	r5, [r1, #12]
 8003084:	f023 0380 	bic.w	r3, r3, #128	@ 0x80
 8003088:	ea43 1305 	orr.w	r3, r3, r5, lsl #4
 800308c:	f424 6440 	bic.w	r4, r4, #3072	@ 0xc00
 8003090:	e9d1 5605 	ldrd	r5, r6, [r1, #20]
 8003094:	4335      	orrs	r5, r6
 8003096:	f023 0340 	bic.w	r3, r3, #64	@ 0x40
 800309a:	ea44 0485 	orr.w	r4, r4, r5, lsl #2
 800309e:	6044      	str	r4, [r0, #4]
 80030a0:	6182      	str	r2, [r0, #24]
 80030a2:	684a      	ldr	r2, [r1, #4]
 80030a4:	6382      	str	r2, [r0, #56]	@ 0x38
 80030a6:	6203      	str	r3, [r0, #32]
 80030a8:	bd70      	pop	{r4, r5, r6, pc}
 80030aa:	bf00      	nop
 80030ac:	40012c00 	.word	0x40012c00

080030b0 <HAL_TIM_PWM_ConfigChannel>:
 80030b0:	b538      	push	{r3, r4, r5, lr}
 80030b2:	f890 303c 	ldrb.w	r3, [r0, #60]	@ 0x3c
 80030b6:	4604      	mov	r4, r0
 80030b8:	2b01      	cmp	r3, #1
 80030ba:	d04f      	beq.n	800315c <HAL_TIM_PWM_ConfigChannel+0xac>
 80030bc:	2001      	movs	r0, #1
 80030be:	2a08      	cmp	r2, #8
 80030c0:	f884 003c 	strb.w	r0, [r4, #60]	@ 0x3c
 80030c4:	d03a      	beq.n	800313c <HAL_TIM_PWM_ConfigChannel+0x8c>
 80030c6:	d806      	bhi.n	80030d6 <HAL_TIM_PWM_ConfigChannel+0x26>
 80030c8:	b1ba      	cbz	r2, 80030fa <HAL_TIM_PWM_ConfigChannel+0x4a>
 80030ca:	2a04      	cmp	r2, #4
 80030cc:	d026      	beq.n	800311c <HAL_TIM_PWM_ConfigChannel+0x6c>
 80030ce:	2300      	movs	r3, #0
 80030d0:	f884 303c 	strb.w	r3, [r4, #60]	@ 0x3c
 80030d4:	bd38      	pop	{r3, r4, r5, pc}
 80030d6:	2a0c      	cmp	r2, #12
 80030d8:	d1f9      	bne.n	80030ce <HAL_TIM_PWM_ConfigChannel+0x1e>
 80030da:	6820      	ldr	r0, [r4, #0]
 80030dc:	f7ff ff0e 	bl	8002efc <TIM_OC4_SetConfig>
 80030e0:	69c3      	ldr	r3, [r0, #28]
 80030e2:	690a      	ldr	r2, [r1, #16]
 80030e4:	f443 6300 	orr.w	r3, r3, #2048	@ 0x800
 80030e8:	61c3      	str	r3, [r0, #28]
 80030ea:	69c3      	ldr	r3, [r0, #28]
 80030ec:	f423 6380 	bic.w	r3, r3, #1024	@ 0x400
 80030f0:	61c3      	str	r3, [r0, #28]
 80030f2:	69c3      	ldr	r3, [r0, #28]
 80030f4:	ea43 2302 	orr.w	r3, r3, r2, lsl #8
 80030f8:	e02e      	b.n	8003158 <HAL_TIM_PWM_ConfigChannel+0xa8>
 80030fa:	6820      	ldr	r0, [r4, #0]
 80030fc:	f7ff feac 	bl	8002e58 <TIM_OC1_SetConfig>
 8003100:	6983      	ldr	r3, [r0, #24]
 8003102:	690a      	ldr	r2, [r1, #16]
 8003104:	f043 0308 	orr.w	r3, r3, #8
 8003108:	6183      	str	r3, [r0, #24]
 800310a:	6983      	ldr	r3, [r0, #24]
 800310c:	f023 0304 	bic.w	r3, r3, #4
 8003110:	6183      	str	r3, [r0, #24]
 8003112:	6983      	ldr	r3, [r0, #24]
 8003114:	4313      	orrs	r3, r2
 8003116:	6183      	str	r3, [r0, #24]
 8003118:	2000      	movs	r0, #0
 800311a:	e7d8      	b.n	80030ce <HAL_TIM_PWM_ConfigChannel+0x1e>
 800311c:	6820      	ldr	r0, [r4, #0]
 800311e:	f7ff ff9b 	bl	8003058 <TIM_OC2_SetConfig>
 8003122:	6983      	ldr	r3, [r0, #24]
 8003124:	690a      	ldr	r2, [r1, #16]
 8003126:	f443 6300 	orr.w	r3, r3, #2048	@ 0x800
 800312a:	6183      	str	r3, [r0, #24]
 800312c:	6983      	ldr	r3, [r0, #24]
 800312e:	f423 6380 	bic.w	r3, r3, #1024	@ 0x400
 8003132:	6183      	str	r3, [r0, #24]
 8003134:	6983      	ldr	r3, [r0, #24]
 8003136:	ea43 2302 	orr.w	r3, r3, r2, lsl #8
 800313a:	e7ec      	b.n	8003116 <HAL_TIM_PWM_ConfigChannel+0x66>
 800313c:	6820      	ldr	r0, [r4, #0]
 800313e:	f7ff feb3 	bl	8002ea8 <TIM_OC3_SetConfig>
 8003142:	69c3      	ldr	r3, [r0, #28]
 8003144:	690a      	ldr	r2, [r1, #16]
 8003146:	f043 0308 	orr.w	r3, r3, #8
 800314a:	61c3      	str	r3, [r0, #28]
 800314c:	69c3      	ldr	r3, [r0, #28]
 800314e:	f023 0304 	bic.w	r3, r3, #4
 8003152:	61c3      	str	r3, [r0, #28]
 8003154:	69c3      	ldr	r3, [r0, #28]
 8003156:	4313      	orrs	r3, r2
 8003158:	61c3      	str	r3, [r0, #28]
 800315a:	e7dd      	b.n	8003118 <HAL_TIM_PWM_ConfigChannel+0x68>
 800315c:	2002      	movs	r0, #2
 800315e:	e7b9      	b.n	80030d4 <HAL_TIM_PWM_ConfigChannel+0x24>

08003160 <TIM_ETR_SetConfig>:
 8003160:	b510      	push	{r4, lr}
 8003162:	6884      	ldr	r4, [r0, #8]
 8003164:	430a      	orrs	r2, r1
 8003166:	f424 447f 	bic.w	r4, r4, #65280	@ 0xff00
 800316a:	ea42 2203 	orr.w	r2, r2, r3, lsl #8
 800316e:	4322      	orrs	r2, r4
 8003170:	6082      	str	r2, [r0, #8]
 8003172:	bd10      	pop	{r4, pc}

08003174 <HAL_TIM_ConfigClockSource>:
 8003174:	b538      	push	{r3, r4, r5, lr}
 8003176:	f890 303c 	ldrb.w	r3, [r0, #60]	@ 0x3c
 800317a:	4604      	mov	r4, r0
 800317c:	2b01      	cmp	r3, #1
 800317e:	f04f 0002 	mov.w	r0, #2
 8003182:	f000 808e 	beq.w	80032a2 <HAL_TIM_ConfigClockSource+0x12e>
 8003186:	2201      	movs	r2, #1
 8003188:	f884 003d 	strb.w	r0, [r4, #61]	@ 0x3d
 800318c:	6820      	ldr	r0, [r4, #0]
 800318e:	f884 203c 	strb.w	r2, [r4, #60]	@ 0x3c
 8003192:	6883      	ldr	r3, [r0, #8]
 8003194:	f423 437f 	bic.w	r3, r3, #65280	@ 0xff00
 8003198:	f023 0377 	bic.w	r3, r3, #119	@ 0x77
 800319c:	6083      	str	r3, [r0, #8]
 800319e:	680b      	ldr	r3, [r1, #0]
 80031a0:	2b60      	cmp	r3, #96	@ 0x60
 80031a2:	d04f      	beq.n	8003244 <HAL_TIM_ConfigClockSource+0xd0>
 80031a4:	d832      	bhi.n	800320c <HAL_TIM_ConfigClockSource+0x98>
 80031a6:	2b40      	cmp	r3, #64	@ 0x40
 80031a8:	d064      	beq.n	8003274 <HAL_TIM_ConfigClockSource+0x100>
 80031aa:	d816      	bhi.n	80031da <HAL_TIM_ConfigClockSource+0x66>
 80031ac:	2b20      	cmp	r3, #32
 80031ae:	d00d      	beq.n	80031cc <HAL_TIM_ConfigClockSource+0x58>
 80031b0:	d80a      	bhi.n	80031c8 <HAL_TIM_ConfigClockSource+0x54>
 80031b2:	f033 0110 	bics.w	r1, r3, #16
 80031b6:	d009      	beq.n	80031cc <HAL_TIM_ConfigClockSource+0x58>
 80031b8:	2301      	movs	r3, #1
 80031ba:	f884 303d 	strb.w	r3, [r4, #61]	@ 0x3d
 80031be:	2300      	movs	r3, #0
 80031c0:	f884 303c 	strb.w	r3, [r4, #60]	@ 0x3c
 80031c4:	4610      	mov	r0, r2
 80031c6:	bd38      	pop	{r3, r4, r5, pc}
 80031c8:	2b30      	cmp	r3, #48	@ 0x30
 80031ca:	d1f5      	bne.n	80031b8 <HAL_TIM_ConfigClockSource+0x44>
 80031cc:	6882      	ldr	r2, [r0, #8]
 80031ce:	f022 0270 	bic.w	r2, r2, #112	@ 0x70
 80031d2:	4313      	orrs	r3, r2
 80031d4:	f043 0307 	orr.w	r3, r3, #7
 80031d8:	e028      	b.n	800322c <HAL_TIM_ConfigClockSource+0xb8>
 80031da:	2b50      	cmp	r3, #80	@ 0x50
 80031dc:	d1ec      	bne.n	80031b8 <HAL_TIM_ConfigClockSource+0x44>
 80031de:	684a      	ldr	r2, [r1, #4]
 80031e0:	68cd      	ldr	r5, [r1, #12]
 80031e2:	6a01      	ldr	r1, [r0, #32]
 80031e4:	6a03      	ldr	r3, [r0, #32]
 80031e6:	f021 010a 	bic.w	r1, r1, #10
 80031ea:	f023 0301 	bic.w	r3, r3, #1
 80031ee:	6203      	str	r3, [r0, #32]
 80031f0:	6983      	ldr	r3, [r0, #24]
 80031f2:	430a      	orrs	r2, r1
 80031f4:	f023 03f0 	bic.w	r3, r3, #240	@ 0xf0
 80031f8:	ea43 1305 	orr.w	r3, r3, r5, lsl #4
 80031fc:	6183      	str	r3, [r0, #24]
 80031fe:	6202      	str	r2, [r0, #32]
 8003200:	6883      	ldr	r3, [r0, #8]
 8003202:	f023 0370 	bic.w	r3, r3, #112	@ 0x70
 8003206:	f043 0357 	orr.w	r3, r3, #87	@ 0x57
 800320a:	e00f      	b.n	800322c <HAL_TIM_ConfigClockSource+0xb8>
 800320c:	f5b3 5f80 	cmp.w	r3, #4096	@ 0x1000
 8003210:	d00d      	beq.n	800322e <HAL_TIM_ConfigClockSource+0xba>
 8003212:	f5b3 5f00 	cmp.w	r3, #8192	@ 0x2000
 8003216:	d00c      	beq.n	8003232 <HAL_TIM_ConfigClockSource+0xbe>
 8003218:	2b70      	cmp	r3, #112	@ 0x70
 800321a:	d1cd      	bne.n	80031b8 <HAL_TIM_ConfigClockSource+0x44>
 800321c:	68cb      	ldr	r3, [r1, #12]
 800321e:	e9d1 2101 	ldrd	r2, r1, [r1, #4]
 8003222:	f7ff ff9d 	bl	8003160 <TIM_ETR_SetConfig>
 8003226:	6883      	ldr	r3, [r0, #8]
 8003228:	f043 0377 	orr.w	r3, r3, #119	@ 0x77
 800322c:	6083      	str	r3, [r0, #8]
 800322e:	2200      	movs	r2, #0
 8003230:	e7c2      	b.n	80031b8 <HAL_TIM_ConfigClockSource+0x44>
 8003232:	68cb      	ldr	r3, [r1, #12]
 8003234:	e9d1 2101 	ldrd	r2, r1, [r1, #4]
 8003238:	f7ff ff92 	bl	8003160 <TIM_ETR_SetConfig>
 800323c:	6883      	ldr	r3, [r0, #8]
 800323e:	f443 4380 	orr.w	r3, r3, #16384	@ 0x4000
 8003242:	e7f3      	b.n	800322c <HAL_TIM_ConfigClockSource+0xb8>
 8003244:	6a03      	ldr	r3, [r0, #32]
 8003246:	6a02      	ldr	r2, [r0, #32]
 8003248:	684d      	ldr	r5, [r1, #4]
 800324a:	f022 0210 	bic.w	r2, r2, #16
 800324e:	68c9      	ldr	r1, [r1, #12]
 8003250:	6202      	str	r2, [r0, #32]
 8003252:	6982      	ldr	r2, [r0, #24]
 8003254:	f023 03a0 	bic.w	r3, r3, #160	@ 0xa0
 8003258:	f422 4270 	bic.w	r2, r2, #61440	@ 0xf000
 800325c:	ea43 1305 	orr.w	r3, r3, r5, lsl #4
 8003260:	ea42 3201 	orr.w	r2, r2, r1, lsl #12
 8003264:	6182      	str	r2, [r0, #24]
 8003266:	6203      	str	r3, [r0, #32]
 8003268:	6883      	ldr	r3, [r0, #8]
 800326a:	f023 0370 	bic.w	r3, r3, #112	@ 0x70
 800326e:	f043 0367 	orr.w	r3, r3, #103	@ 0x67
 8003272:	e7db      	b.n	800322c <HAL_TIM_ConfigClockSource+0xb8>
 8003274:	684a      	ldr	r2, [r1, #4]
 8003276:	68cd      	ldr	r5, [r1, #12]
 8003278:	6a01      	ldr	r1, [r0, #32]
 800327a:	6a03      	ldr	r3, [r0, #32]
 800327c:	f021 010a 	bic.w	r1, r1, #10
 8003280:	f023 0301 	bic.w	r3, r3, #1
 8003284:	6203      	str	r3, [r0, #32]
 8003286:	6983      	ldr	r3, [r0, #24]
 8003288:	430a      	orrs	r2, r1
 800328a:	f023 03f0 	bic.w	r3, r3, #240	@ 0xf0
 800328e:	ea43 1305 	orr.w	r3, r3, r5, lsl #4
 8003292:	6183      	str	r3, [r0, #24]
 8003294:	6202      	str	r2, [r0, #32]
 8003296:	6883      	ldr	r3, [r0, #8]
 8003298:	f023 0370 	bic.w	r3, r3, #112	@ 0x70
 800329c:	f043 0347 	orr.w	r3, r3, #71	@ 0x47
 80032a0:	e7c4      	b.n	800322c <HAL_TIM_ConfigClockSource+0xb8>
 80032a2:	4602      	mov	r2, r0
 80032a4:	e78e      	b.n	80031c4 <HAL_TIM_ConfigClockSource+0x50>
	...

080032a8 <HAL_TIMEx_MasterConfigSynchronization>:
 80032a8:	b530      	push	{r4, r5, lr}
 80032aa:	f890 303c 	ldrb.w	r3, [r0, #60]	@ 0x3c
 80032ae:	4602      	mov	r2, r0
 80032b0:	2b01      	cmp	r3, #1
 80032b2:	f04f 0002 	mov.w	r0, #2
 80032b6:	d022      	beq.n	80032fe <HAL_TIMEx_MasterConfigSynchronization+0x56>
 80032b8:	6813      	ldr	r3, [r2, #0]
 80032ba:	f882 003d 	strb.w	r0, [r2, #61]	@ 0x3d
 80032be:	685c      	ldr	r4, [r3, #4]
 80032c0:	680d      	ldr	r5, [r1, #0]
 80032c2:	f024 0470 	bic.w	r4, r4, #112	@ 0x70
 80032c6:	432c      	orrs	r4, r5
 80032c8:	6898      	ldr	r0, [r3, #8]
 80032ca:	605c      	str	r4, [r3, #4]
 80032cc:	4c0c      	ldr	r4, [pc, #48]	@ (8003300 <HAL_TIMEx_MasterConfigSynchronization+0x58>)
 80032ce:	42a3      	cmp	r3, r4
 80032d0:	d00a      	beq.n	80032e8 <HAL_TIMEx_MasterConfigSynchronization+0x40>
 80032d2:	f1b3 4f80 	cmp.w	r3, #1073741824	@ 0x40000000
 80032d6:	d007      	beq.n	80032e8 <HAL_TIMEx_MasterConfigSynchronization+0x40>
 80032d8:	f5a4 3494 	sub.w	r4, r4, #75776	@ 0x12800
 80032dc:	42a3      	cmp	r3, r4
 80032de:	d003      	beq.n	80032e8 <HAL_TIMEx_MasterConfigSynchronization+0x40>
 80032e0:	f504 6480 	add.w	r4, r4, #1024	@ 0x400
 80032e4:	42a3      	cmp	r3, r4
 80032e6:	d104      	bne.n	80032f2 <HAL_TIMEx_MasterConfigSynchronization+0x4a>
 80032e8:	6849      	ldr	r1, [r1, #4]
 80032ea:	f020 0080 	bic.w	r0, r0, #128	@ 0x80
 80032ee:	4301      	orrs	r1, r0
 80032f0:	6099      	str	r1, [r3, #8]
 80032f2:	2301      	movs	r3, #1
 80032f4:	2000      	movs	r0, #0
 80032f6:	f882 303d 	strb.w	r3, [r2, #61]	@ 0x3d
 80032fa:	f882 003c 	strb.w	r0, [r2, #60]	@ 0x3c
 80032fe:	bd30      	pop	{r4, r5, pc}
 8003300:	40012c00 	.word	0x40012c00

08003304 <UART_EndRxTransfer>:
 8003304:	6802      	ldr	r2, [r0, #0]
 8003306:	f102 030c 	add.w	r3, r2, #12
 800330a:	e853 3f00 	ldrex	r3, [r3]
 800330e:	f423 7390 	bic.w	r3, r3, #288	@ 0x120
 8003312:	320c      	adds	r2, #12
 8003314:	e842 3100 	strex	r1, r3, [r2]
 8003318:	6802      	ldr	r2, [r0, #0]
 800331a:	2900      	cmp	r1, #0
 800331c:	d1f2      	bne.n	8003304 <UART_EndRxTransfer>
 800331e:	f102 0314 	add.w	r3, r2, #20
 8003322:	e853 3f00 	ldrex	r3, [r3]
 8003326:	f023 0301 	bic.w	r3, r3, #1
 800332a:	f102 0c14 	add.w	ip, r2, #20
 800332e:	e84c 3100 	strex	r1, r3, [ip]
 8003332:	2900      	cmp	r1, #0
 8003334:	d1f3      	bne.n	800331e <UART_EndRxTransfer+0x1a>
 8003336:	6b03      	ldr	r3, [r0, #48]	@ 0x30
 8003338:	2b01      	cmp	r3, #1
 800333a:	d10b      	bne.n	8003354 <UART_EndRxTransfer+0x50>
 800333c:	f102 030c 	add.w	r3, r2, #12
 8003340:	e853 3f00 	ldrex	r3, [r3]
 8003344:	f023 0310 	bic.w	r3, r3, #16
 8003348:	f102 0c0c 	add.w	ip, r2, #12
 800334c:	e84c 3100 	strex	r1, r3, [ip]
 8003350:	2900      	cmp	r1, #0
 8003352:	d1f3      	bne.n	800333c <UART_EndRxTransfer+0x38>
 8003354:	2320      	movs	r3, #32
 8003356:	f880 3042 	strb.w	r3, [r0, #66]	@ 0x42
 800335a:	2300      	movs	r3, #0
 800335c:	6303      	str	r3, [r0, #48]	@ 0x30
 800335e:	4770      	bx	lr

08003360 <UART_SetConfig>:
 8003360:	b510      	push	{r4, lr}
 8003362:	4604      	mov	r4, r0
 8003364:	6803      	ldr	r3, [r0, #0]
 8003366:	68c1      	ldr	r1, [r0, #12]
 8003368:	691a      	ldr	r2, [r3, #16]
 800336a:	f422 5240 	bic.w	r2, r2, #12288	@ 0x3000
 800336e:	430a      	orrs	r2, r1
 8003370:	611a      	str	r2, [r3, #16]
 8003372:	6882      	ldr	r2, [r0, #8]
 8003374:	6900      	ldr	r0, [r0, #16]
 8003376:	68d9      	ldr	r1, [r3, #12]
 8003378:	4302      	orrs	r2, r0
 800337a:	6960      	ldr	r0, [r4, #20]
 800337c:	f421 51b0 	bic.w	r1, r1, #5632	@ 0x1600
 8003380:	f021 010c 	bic.w	r1, r1, #12
 8003384:	4302      	orrs	r2, r0
 8003386:	430a      	orrs	r2, r1
 8003388:	60da      	str	r2, [r3, #12]
 800338a:	695a      	ldr	r2, [r3, #20]
 800338c:	69a1      	ldr	r1, [r4, #24]
 800338e:	f422 7240 	bic.w	r2, r2, #768	@ 0x300
 8003392:	430a      	orrs	r2, r1
 8003394:	615a      	str	r2, [r3, #20]
 8003396:	4a0e      	ldr	r2, [pc, #56]	@ (80033d0 <UART_SetConfig+0x70>)
 8003398:	4293      	cmp	r3, r2
 800339a:	d115      	bne.n	80033c8 <UART_SetConfig+0x68>
 800339c:	f7ff fcd2 	bl	8002d44 <HAL_RCC_GetPCLK2Freq>
 80033a0:	2319      	movs	r3, #25
 80033a2:	4343      	muls	r3, r0
 80033a4:	6862      	ldr	r2, [r4, #4]
 80033a6:	6820      	ldr	r0, [r4, #0]
 80033a8:	0092      	lsls	r2, r2, #2
 80033aa:	fbb3 f3f2 	udiv	r3, r3, r2
 80033ae:	2264      	movs	r2, #100	@ 0x64
 80033b0:	fbb3 f1f2 	udiv	r1, r3, r2
 80033b4:	fb02 3311 	mls	r3, r2, r1, r3
 80033b8:	011b      	lsls	r3, r3, #4
 80033ba:	3332      	adds	r3, #50	@ 0x32
 80033bc:	fbb3 f3f2 	udiv	r3, r3, r2
 80033c0:	eb03 1301 	add.w	r3, r3, r1, lsl #4
 80033c4:	6083      	str	r3, [r0, #8]
 80033c6:	bd10      	pop	{r4, pc}
 80033c8:	f7ff fcac 	bl	8002d24 <HAL_RCC_GetPCLK1Freq>
 80033cc:	e7e8      	b.n	80033a0 <UART_SetConfig+0x40>
 80033ce:	bf00      	nop
 80033d0:	40013800 	.word	0x40013800

080033d4 <UART_WaitOnFlagUntilTimeout.constprop.0>:
 80033d4:	b5f7      	push	{r0, r1, r2, r4, r5, r6, r7, lr}
 80033d6:	4605      	mov	r5, r0
 80033d8:	460c      	mov	r4, r1
 80033da:	4617      	mov	r7, r2
 80033dc:	461e      	mov	r6, r3
 80033de:	682a      	ldr	r2, [r5, #0]
 80033e0:	6813      	ldr	r3, [r2, #0]
 80033e2:	ea34 0303 	bics.w	r3, r4, r3
 80033e6:	d101      	bne.n	80033ec <UART_WaitOnFlagUntilTimeout.constprop.0+0x18>
 80033e8:	2000      	movs	r0, #0
 80033ea:	e021      	b.n	8003430 <UART_WaitOnFlagUntilTimeout.constprop.0+0x5c>
 80033ec:	1c70      	adds	r0, r6, #1
 80033ee:	d0f7      	beq.n	80033e0 <UART_WaitOnFlagUntilTimeout.constprop.0+0xc>
 80033f0:	f7fd fe6a 	bl	80010c8 <HAL_GetTick>
 80033f4:	1bc0      	subs	r0, r0, r7
 80033f6:	4286      	cmp	r6, r0
 80033f8:	d31c      	bcc.n	8003434 <UART_WaitOnFlagUntilTimeout.constprop.0+0x60>
 80033fa:	b1de      	cbz	r6, 8003434 <UART_WaitOnFlagUntilTimeout.constprop.0+0x60>
 80033fc:	682b      	ldr	r3, [r5, #0]
 80033fe:	68da      	ldr	r2, [r3, #12]
 8003400:	0751      	lsls	r1, r2, #29
 8003402:	d5ec      	bpl.n	80033de <UART_WaitOnFlagUntilTimeout.constprop.0+0xa>
 8003404:	2c80      	cmp	r4, #128	@ 0x80
 8003406:	d0ea      	beq.n	80033de <UART_WaitOnFlagUntilTimeout.constprop.0+0xa>
 8003408:	2c40      	cmp	r4, #64	@ 0x40
 800340a:	d0e8      	beq.n	80033de <UART_WaitOnFlagUntilTimeout.constprop.0+0xa>
 800340c:	681a      	ldr	r2, [r3, #0]
 800340e:	0712      	lsls	r2, r2, #28
 8003410:	d5e5      	bpl.n	80033de <UART_WaitOnFlagUntilTimeout.constprop.0+0xa>
 8003412:	2400      	movs	r4, #0
 8003414:	9401      	str	r4, [sp, #4]
 8003416:	681a      	ldr	r2, [r3, #0]
 8003418:	4628      	mov	r0, r5
 800341a:	9201      	str	r2, [sp, #4]
 800341c:	685b      	ldr	r3, [r3, #4]
 800341e:	9301      	str	r3, [sp, #4]
 8003420:	9b01      	ldr	r3, [sp, #4]
 8003422:	f7ff ff6f 	bl	8003304 <UART_EndRxTransfer>
 8003426:	2308      	movs	r3, #8
 8003428:	2001      	movs	r0, #1
 800342a:	646b      	str	r3, [r5, #68]	@ 0x44
 800342c:	f885 4040 	strb.w	r4, [r5, #64]	@ 0x40
 8003430:	b003      	add	sp, #12
 8003432:	bdf0      	pop	{r4, r5, r6, r7, pc}
 8003434:	2003      	movs	r0, #3
 8003436:	e7fb      	b.n	8003430 <UART_WaitOnFlagUntilTimeout.constprop.0+0x5c>

08003438 <HAL_UART_Init>:
 8003438:	b510      	push	{r4, lr}
 800343a:	4604      	mov	r4, r0
 800343c:	b348      	cbz	r0, 8003492 <HAL_UART_Init+0x5a>
 800343e:	f890 3041 	ldrb.w	r3, [r0, #65]	@ 0x41
 8003442:	f003 02ff 	and.w	r2, r3, #255	@ 0xff
 8003446:	b91b      	cbnz	r3, 8003450 <HAL_UART_Init+0x18>
 8003448:	f880 2040 	strb.w	r2, [r0, #64]	@ 0x40
 800344c:	f7fd fd90 	bl	8000f70 <HAL_UART_MspInit>
 8003450:	2324      	movs	r3, #36	@ 0x24
 8003452:	6822      	ldr	r2, [r4, #0]
 8003454:	f884 3041 	strb.w	r3, [r4, #65]	@ 0x41
 8003458:	68d3      	ldr	r3, [r2, #12]
 800345a:	4620      	mov	r0, r4
 800345c:	f423 5300 	bic.w	r3, r3, #8192	@ 0x2000
 8003460:	60d3      	str	r3, [r2, #12]
 8003462:	f7ff ff7d 	bl	8003360 <UART_SetConfig>
 8003466:	6823      	ldr	r3, [r4, #0]
 8003468:	2000      	movs	r0, #0
 800346a:	691a      	ldr	r2, [r3, #16]
 800346c:	f422 4290 	bic.w	r2, r2, #18432	@ 0x4800
 8003470:	611a      	str	r2, [r3, #16]
 8003472:	695a      	ldr	r2, [r3, #20]
 8003474:	f022 022a 	bic.w	r2, r2, #42	@ 0x2a
 8003478:	615a      	str	r2, [r3, #20]
 800347a:	68da      	ldr	r2, [r3, #12]
 800347c:	f442 5200 	orr.w	r2, r2, #8192	@ 0x2000
 8003480:	60da      	str	r2, [r3, #12]
 8003482:	2320      	movs	r3, #32
 8003484:	6460      	str	r0, [r4, #68]	@ 0x44
 8003486:	f884 3041 	strb.w	r3, [r4, #65]	@ 0x41
 800348a:	f884 3042 	strb.w	r3, [r4, #66]	@ 0x42
 800348e:	6360      	str	r0, [r4, #52]	@ 0x34
 8003490:	bd10      	pop	{r4, pc}
 8003492:	2001      	movs	r0, #1
 8003494:	e7fc      	b.n	8003490 <HAL_UART_Init+0x58>

08003496 <HAL_UART_Transmit>:
 8003496:	e92d 43f8 	stmdb	sp!, {r3, r4, r5, r6, r7, r8, r9, lr}
 800349a:	4698      	mov	r8, r3
 800349c:	f890 3041 	ldrb.w	r3, [r0, #65]	@ 0x41
 80034a0:	4604      	mov	r4, r0
 80034a2:	2b20      	cmp	r3, #32
 80034a4:	460e      	mov	r6, r1
 80034a6:	4617      	mov	r7, r2
 80034a8:	d13f      	bne.n	800352a <HAL_UART_Transmit+0x94>
 80034aa:	2900      	cmp	r1, #0
 80034ac:	d03f      	beq.n	800352e <HAL_UART_Transmit+0x98>
 80034ae:	2a00      	cmp	r2, #0
 80034b0:	d03d      	beq.n	800352e <HAL_UART_Transmit+0x98>
 80034b2:	2321      	movs	r3, #33	@ 0x21
 80034b4:	2500      	movs	r5, #0
 80034b6:	6445      	str	r5, [r0, #68]	@ 0x44
 80034b8:	f880 3041 	strb.w	r3, [r0, #65]	@ 0x41
 80034bc:	f7fd fe04 	bl	80010c8 <HAL_GetTick>
 80034c0:	68a3      	ldr	r3, [r4, #8]
 80034c2:	4681      	mov	r9, r0
 80034c4:	f5b3 5f80 	cmp.w	r3, #4096	@ 0x1000
 80034c8:	84a7      	strh	r7, [r4, #36]	@ 0x24
 80034ca:	84e7      	strh	r7, [r4, #38]	@ 0x26
 80034cc:	d103      	bne.n	80034d6 <HAL_UART_Transmit+0x40>
 80034ce:	6923      	ldr	r3, [r4, #16]
 80034d0:	b90b      	cbnz	r3, 80034d6 <HAL_UART_Transmit+0x40>
 80034d2:	4635      	mov	r5, r6
 80034d4:	461e      	mov	r6, r3
 80034d6:	8ce3      	ldrh	r3, [r4, #38]	@ 0x26
 80034d8:	b29b      	uxth	r3, r3
 80034da:	b953      	cbnz	r3, 80034f2 <HAL_UART_Transmit+0x5c>
 80034dc:	4643      	mov	r3, r8
 80034de:	464a      	mov	r2, r9
 80034e0:	2140      	movs	r1, #64	@ 0x40
 80034e2:	4620      	mov	r0, r4
 80034e4:	f7ff ff76 	bl	80033d4 <UART_WaitOnFlagUntilTimeout.constprop.0>
 80034e8:	2320      	movs	r3, #32
 80034ea:	b950      	cbnz	r0, 8003502 <HAL_UART_Transmit+0x6c>
 80034ec:	f884 3041 	strb.w	r3, [r4, #65]	@ 0x41
 80034f0:	e00a      	b.n	8003508 <HAL_UART_Transmit+0x72>
 80034f2:	4643      	mov	r3, r8
 80034f4:	464a      	mov	r2, r9
 80034f6:	2180      	movs	r1, #128	@ 0x80
 80034f8:	4620      	mov	r0, r4
 80034fa:	f7ff ff6b 	bl	80033d4 <UART_WaitOnFlagUntilTimeout.constprop.0>
 80034fe:	b128      	cbz	r0, 800350c <HAL_UART_Transmit+0x76>
 8003500:	2320      	movs	r3, #32
 8003502:	2003      	movs	r0, #3
 8003504:	f884 3041 	strb.w	r3, [r4, #65]	@ 0x41
 8003508:	e8bd 83f8 	ldmia.w	sp!, {r3, r4, r5, r6, r7, r8, r9, pc}
 800350c:	6822      	ldr	r2, [r4, #0]
 800350e:	b94e      	cbnz	r6, 8003524 <HAL_UART_Transmit+0x8e>
 8003510:	f835 3b02 	ldrh.w	r3, [r5], #2
 8003514:	f3c3 0308 	ubfx	r3, r3, #0, #9
 8003518:	6053      	str	r3, [r2, #4]
 800351a:	8ce1      	ldrh	r1, [r4, #38]	@ 0x26
 800351c:	3901      	subs	r1, #1
 800351e:	b289      	uxth	r1, r1
 8003520:	84e1      	strh	r1, [r4, #38]	@ 0x26
 8003522:	e7d8      	b.n	80034d6 <HAL_UART_Transmit+0x40>
 8003524:	f816 3b01 	ldrb.w	r3, [r6], #1
 8003528:	e7f6      	b.n	8003518 <HAL_UART_Transmit+0x82>
 800352a:	2002      	movs	r0, #2
 800352c:	e7ec      	b.n	8003508 <HAL_UART_Transmit+0x72>
 800352e:	2001      	movs	r0, #1
 8003530:	e7ea      	b.n	8003508 <HAL_UART_Transmit+0x72>

08003532 <HAL_UART_TxCpltCallback>:
 8003532:	4770      	bx	lr

08003534 <HAL_UART_RxCpltCallback>:
 8003534:	4770      	bx	lr

08003536 <HAL_UART_ErrorCallback>:
 8003536:	4770      	bx	lr

08003538 <UART_DMAAbortOnError>:
 8003538:	b508      	push	{r3, lr}
 800353a:	2300      	movs	r3, #0
 800353c:	6a40      	ldr	r0, [r0, #36]	@ 0x24
 800353e:	85c3      	strh	r3, [r0, #46]	@ 0x2e
 8003540:	84c3      	strh	r3, [r0, #38]	@ 0x26
 8003542:	f7ff fff8 	bl	8003536 <HAL_UART_ErrorCallback>
 8003546:	bd08      	pop	{r3, pc}

08003548 <HAL_UARTEx_RxEventCallback>:
 8003548:	4770      	bx	lr

0800354a <UART_Receive_IT.isra.0>:
 800354a:	f890 3042 	ldrb.w	r3, [r0, #66]	@ 0x42
 800354e:	b507      	push	{r0, r1, r2, lr}
 8003550:	2b22      	cmp	r3, #34	@ 0x22
 8003552:	d142      	bne.n	80035da <UART_Receive_IT.isra.0+0x90>
 8003554:	6881      	ldr	r1, [r0, #8]
 8003556:	6802      	ldr	r2, [r0, #0]
 8003558:	f5b1 5f80 	cmp.w	r1, #4096	@ 0x1000
 800355c:	6a83      	ldr	r3, [r0, #40]	@ 0x28
 800355e:	d13e      	bne.n	80035de <UART_Receive_IT.isra.0+0x94>
 8003560:	6901      	ldr	r1, [r0, #16]
 8003562:	2900      	cmp	r1, #0
 8003564:	d13e      	bne.n	80035e4 <UART_Receive_IT.isra.0+0x9a>
 8003566:	6852      	ldr	r2, [r2, #4]
 8003568:	f3c2 0208 	ubfx	r2, r2, #0, #9
 800356c:	f823 2b02 	strh.w	r2, [r3], #2
 8003570:	6283      	str	r3, [r0, #40]	@ 0x28
 8003572:	8dc3      	ldrh	r3, [r0, #46]	@ 0x2e
 8003574:	3b01      	subs	r3, #1
 8003576:	b29b      	uxth	r3, r3
 8003578:	85c3      	strh	r3, [r0, #46]	@ 0x2e
 800357a:	2b00      	cmp	r3, #0
 800357c:	d12d      	bne.n	80035da <UART_Receive_IT.isra.0+0x90>
 800357e:	6802      	ldr	r2, [r0, #0]
 8003580:	68d1      	ldr	r1, [r2, #12]
 8003582:	f021 0120 	bic.w	r1, r1, #32
 8003586:	60d1      	str	r1, [r2, #12]
 8003588:	68d1      	ldr	r1, [r2, #12]
 800358a:	f421 7180 	bic.w	r1, r1, #256	@ 0x100
 800358e:	60d1      	str	r1, [r2, #12]
 8003590:	6951      	ldr	r1, [r2, #20]
 8003592:	f021 0101 	bic.w	r1, r1, #1
 8003596:	6151      	str	r1, [r2, #20]
 8003598:	2220      	movs	r2, #32
 800359a:	f880 2042 	strb.w	r2, [r0, #66]	@ 0x42
 800359e:	6343      	str	r3, [r0, #52]	@ 0x34
 80035a0:	6b02      	ldr	r2, [r0, #48]	@ 0x30
 80035a2:	2a01      	cmp	r2, #1
 80035a4:	6802      	ldr	r2, [r0, #0]
 80035a6:	d127      	bne.n	80035f8 <UART_Receive_IT.isra.0+0xae>
 80035a8:	6303      	str	r3, [r0, #48]	@ 0x30
 80035aa:	f102 030c 	add.w	r3, r2, #12
 80035ae:	e853 3f00 	ldrex	r3, [r3]
 80035b2:	f023 0310 	bic.w	r3, r3, #16
 80035b6:	f102 0c0c 	add.w	ip, r2, #12
 80035ba:	e84c 3100 	strex	r1, r3, [ip]
 80035be:	2900      	cmp	r1, #0
 80035c0:	d1f3      	bne.n	80035aa <UART_Receive_IT.isra.0+0x60>
 80035c2:	6813      	ldr	r3, [r2, #0]
 80035c4:	06db      	lsls	r3, r3, #27
 80035c6:	d505      	bpl.n	80035d4 <UART_Receive_IT.isra.0+0x8a>
 80035c8:	9101      	str	r1, [sp, #4]
 80035ca:	6813      	ldr	r3, [r2, #0]
 80035cc:	9301      	str	r3, [sp, #4]
 80035ce:	6853      	ldr	r3, [r2, #4]
 80035d0:	9301      	str	r3, [sp, #4]
 80035d2:	9b01      	ldr	r3, [sp, #4]
 80035d4:	8d81      	ldrh	r1, [r0, #44]	@ 0x2c
 80035d6:	f7ff ffb7 	bl	8003548 <HAL_UARTEx_RxEventCallback>
 80035da:	b003      	add	sp, #12
 80035dc:	bd00      	pop	{pc}
 80035de:	b939      	cbnz	r1, 80035f0 <UART_Receive_IT.isra.0+0xa6>
 80035e0:	6901      	ldr	r1, [r0, #16]
 80035e2:	b929      	cbnz	r1, 80035f0 <UART_Receive_IT.isra.0+0xa6>
 80035e4:	6852      	ldr	r2, [r2, #4]
 80035e6:	b2d2      	uxtb	r2, r2
 80035e8:	701a      	strb	r2, [r3, #0]
 80035ea:	6a83      	ldr	r3, [r0, #40]	@ 0x28
 80035ec:	3301      	adds	r3, #1
 80035ee:	e7bf      	b.n	8003570 <UART_Receive_IT.isra.0+0x26>
 80035f0:	6852      	ldr	r2, [r2, #4]
 80035f2:	f002 027f 	and.w	r2, r2, #127	@ 0x7f
 80035f6:	e7f7      	b.n	80035e8 <UART_Receive_IT.isra.0+0x9e>
 80035f8:	f7ff ff9c 	bl	8003534 <HAL_UART_RxCpltCallback>
 80035fc:	e7ed      	b.n	80035da <UART_Receive_IT.isra.0+0x90>
	...

08003600 <HAL_UART_IRQHandler>:
 8003600:	6803      	ldr	r3, [r0, #0]
 8003602:	b573      	push	{r0, r1, r4, r5, r6, lr}
 8003604:	681a      	ldr	r2, [r3, #0]
 8003606:	4604      	mov	r4, r0
 8003608:	0716      	lsls	r6, r2, #28
 800360a:	68d9      	ldr	r1, [r3, #12]
 800360c:	695d      	ldr	r5, [r3, #20]
 800360e:	d108      	bne.n	8003622 <HAL_UART_IRQHandler+0x22>
 8003610:	0696      	lsls	r6, r2, #26
 8003612:	d568      	bpl.n	80036e6 <HAL_UART_IRQHandler+0xe6>
 8003614:	068d      	lsls	r5, r1, #26
 8003616:	d566      	bpl.n	80036e6 <HAL_UART_IRQHandler+0xe6>
 8003618:	b002      	add	sp, #8
 800361a:	e8bd 4070 	ldmia.w	sp!, {r4, r5, r6, lr}
 800361e:	f7ff bf94 	b.w	800354a <UART_Receive_IT.isra.0>
 8003622:	f005 0001 	and.w	r0, r5, #1
 8003626:	f401 7590 	and.w	r5, r1, #288	@ 0x120
 800362a:	4305      	orrs	r5, r0
 800362c:	d05b      	beq.n	80036e6 <HAL_UART_IRQHandler+0xe6>
 800362e:	07d6      	lsls	r6, r2, #31
 8003630:	d505      	bpl.n	800363e <HAL_UART_IRQHandler+0x3e>
 8003632:	05cd      	lsls	r5, r1, #23
 8003634:	bf42      	ittt	mi
 8003636:	6c63      	ldrmi	r3, [r4, #68]	@ 0x44
 8003638:	f043 0301 	orrmi.w	r3, r3, #1
 800363c:	6463      	strmi	r3, [r4, #68]	@ 0x44
 800363e:	0753      	lsls	r3, r2, #29
 8003640:	d504      	bpl.n	800364c <HAL_UART_IRQHandler+0x4c>
 8003642:	b118      	cbz	r0, 800364c <HAL_UART_IRQHandler+0x4c>
 8003644:	6c63      	ldr	r3, [r4, #68]	@ 0x44
 8003646:	f043 0302 	orr.w	r3, r3, #2
 800364a:	6463      	str	r3, [r4, #68]	@ 0x44
 800364c:	0796      	lsls	r6, r2, #30
 800364e:	d504      	bpl.n	800365a <HAL_UART_IRQHandler+0x5a>
 8003650:	b118      	cbz	r0, 800365a <HAL_UART_IRQHandler+0x5a>
 8003652:	6c63      	ldr	r3, [r4, #68]	@ 0x44
 8003654:	f043 0304 	orr.w	r3, r3, #4
 8003658:	6463      	str	r3, [r4, #68]	@ 0x44
 800365a:	0715      	lsls	r5, r2, #28
 800365c:	d507      	bpl.n	800366e <HAL_UART_IRQHandler+0x6e>
 800365e:	f001 0320 	and.w	r3, r1, #32
 8003662:	4303      	orrs	r3, r0
 8003664:	bf1e      	ittt	ne
 8003666:	6c63      	ldrne	r3, [r4, #68]	@ 0x44
 8003668:	f043 0308 	orrne.w	r3, r3, #8
 800366c:	6463      	strne	r3, [r4, #68]	@ 0x44
 800366e:	6c63      	ldr	r3, [r4, #68]	@ 0x44
 8003670:	2b00      	cmp	r3, #0
 8003672:	d032      	beq.n	80036da <HAL_UART_IRQHandler+0xda>
 8003674:	0692      	lsls	r2, r2, #26
 8003676:	d504      	bpl.n	8003682 <HAL_UART_IRQHandler+0x82>
 8003678:	068b      	lsls	r3, r1, #26
 800367a:	d502      	bpl.n	8003682 <HAL_UART_IRQHandler+0x82>
 800367c:	4620      	mov	r0, r4
 800367e:	f7ff ff64 	bl	800354a <UART_Receive_IT.isra.0>
 8003682:	6826      	ldr	r6, [r4, #0]
 8003684:	4620      	mov	r0, r4
 8003686:	6973      	ldr	r3, [r6, #20]
 8003688:	6c62      	ldr	r2, [r4, #68]	@ 0x44
 800368a:	f003 0340 	and.w	r3, r3, #64	@ 0x40
 800368e:	f002 0208 	and.w	r2, r2, #8
 8003692:	ea53 0502 	orrs.w	r5, r3, r2
 8003696:	d022      	beq.n	80036de <HAL_UART_IRQHandler+0xde>
 8003698:	f7ff fe34 	bl	8003304 <UART_EndRxTransfer>
 800369c:	6973      	ldr	r3, [r6, #20]
 800369e:	065e      	lsls	r6, r3, #25
 80036a0:	d518      	bpl.n	80036d4 <HAL_UART_IRQHandler+0xd4>
 80036a2:	6822      	ldr	r2, [r4, #0]
 80036a4:	f102 0314 	add.w	r3, r2, #20
 80036a8:	e853 3f00 	ldrex	r3, [r3]
 80036ac:	f023 0340 	bic.w	r3, r3, #64	@ 0x40
 80036b0:	3214      	adds	r2, #20
 80036b2:	e842 3100 	strex	r1, r3, [r2]
 80036b6:	2900      	cmp	r1, #0
 80036b8:	d1f3      	bne.n	80036a2 <HAL_UART_IRQHandler+0xa2>
 80036ba:	6be0      	ldr	r0, [r4, #60]	@ 0x3c
 80036bc:	b150      	cbz	r0, 80036d4 <HAL_UART_IRQHandler+0xd4>
 80036be:	4b74      	ldr	r3, [pc, #464]	@ (8003890 <HAL_UART_IRQHandler+0x290>)
 80036c0:	6343      	str	r3, [r0, #52]	@ 0x34
 80036c2:	f7fd febf 	bl	8001444 <HAL_DMA_Abort_IT>
 80036c6:	b140      	cbz	r0, 80036da <HAL_UART_IRQHandler+0xda>
 80036c8:	6be0      	ldr	r0, [r4, #60]	@ 0x3c
 80036ca:	6b43      	ldr	r3, [r0, #52]	@ 0x34
 80036cc:	b002      	add	sp, #8
 80036ce:	e8bd 4070 	ldmia.w	sp!, {r4, r5, r6, lr}
 80036d2:	4718      	bx	r3
 80036d4:	4620      	mov	r0, r4
 80036d6:	f7ff ff2e 	bl	8003536 <HAL_UART_ErrorCallback>
 80036da:	b002      	add	sp, #8
 80036dc:	bd70      	pop	{r4, r5, r6, pc}
 80036de:	f7ff ff2a 	bl	8003536 <HAL_UART_ErrorCallback>
 80036e2:	6465      	str	r5, [r4, #68]	@ 0x44
 80036e4:	e7f9      	b.n	80036da <HAL_UART_IRQHandler+0xda>
 80036e6:	6b20      	ldr	r0, [r4, #48]	@ 0x30
 80036e8:	2801      	cmp	r0, #1
 80036ea:	f040 8094 	bne.w	8003816 <HAL_UART_IRQHandler+0x216>
 80036ee:	06d5      	lsls	r5, r2, #27
 80036f0:	f140 8091 	bpl.w	8003816 <HAL_UART_IRQHandler+0x216>
 80036f4:	06c8      	lsls	r0, r1, #27
 80036f6:	f140 808e 	bpl.w	8003816 <HAL_UART_IRQHandler+0x216>
 80036fa:	2200      	movs	r2, #0
 80036fc:	9201      	str	r2, [sp, #4]
 80036fe:	681a      	ldr	r2, [r3, #0]
 8003700:	9201      	str	r2, [sp, #4]
 8003702:	685a      	ldr	r2, [r3, #4]
 8003704:	9201      	str	r2, [sp, #4]
 8003706:	9a01      	ldr	r2, [sp, #4]
 8003708:	695a      	ldr	r2, [r3, #20]
 800370a:	0652      	lsls	r2, r2, #25
 800370c:	d54d      	bpl.n	80037aa <HAL_UART_IRQHandler+0x1aa>
 800370e:	6be1      	ldr	r1, [r4, #60]	@ 0x3c
 8003710:	680a      	ldr	r2, [r1, #0]
 8003712:	6852      	ldr	r2, [r2, #4]
 8003714:	b292      	uxth	r2, r2
 8003716:	2a00      	cmp	r2, #0
 8003718:	d0df      	beq.n	80036da <HAL_UART_IRQHandler+0xda>
 800371a:	8da0      	ldrh	r0, [r4, #44]	@ 0x2c
 800371c:	4290      	cmp	r0, r2
 800371e:	d9dc      	bls.n	80036da <HAL_UART_IRQHandler+0xda>
 8003720:	85e2      	strh	r2, [r4, #46]	@ 0x2e
 8003722:	698a      	ldr	r2, [r1, #24]
 8003724:	2a20      	cmp	r2, #32
 8003726:	d036      	beq.n	8003796 <HAL_UART_IRQHandler+0x196>
 8003728:	f103 020c 	add.w	r2, r3, #12
 800372c:	e852 2f00 	ldrex	r2, [r2]
 8003730:	f422 7280 	bic.w	r2, r2, #256	@ 0x100
 8003734:	f103 000c 	add.w	r0, r3, #12
 8003738:	e840 2100 	strex	r1, r2, [r0]
 800373c:	2900      	cmp	r1, #0
 800373e:	d1f3      	bne.n	8003728 <HAL_UART_IRQHandler+0x128>
 8003740:	f103 0214 	add.w	r2, r3, #20
 8003744:	e852 2f00 	ldrex	r2, [r2]
 8003748:	f022 0201 	bic.w	r2, r2, #1
 800374c:	f103 0014 	add.w	r0, r3, #20
 8003750:	e840 2100 	strex	r1, r2, [r0]
 8003754:	2900      	cmp	r1, #0
 8003756:	d1f3      	bne.n	8003740 <HAL_UART_IRQHandler+0x140>
 8003758:	f103 0214 	add.w	r2, r3, #20
 800375c:	e852 2f00 	ldrex	r2, [r2]
 8003760:	f022 0240 	bic.w	r2, r2, #64	@ 0x40
 8003764:	f103 0014 	add.w	r0, r3, #20
 8003768:	e840 2100 	strex	r1, r2, [r0]
 800376c:	2900      	cmp	r1, #0
 800376e:	d1f3      	bne.n	8003758 <HAL_UART_IRQHandler+0x158>
 8003770:	2220      	movs	r2, #32
 8003772:	f884 2042 	strb.w	r2, [r4, #66]	@ 0x42
 8003776:	6321      	str	r1, [r4, #48]	@ 0x30
 8003778:	f103 020c 	add.w	r2, r3, #12
 800377c:	e852 2f00 	ldrex	r2, [r2]
 8003780:	f022 0210 	bic.w	r2, r2, #16
 8003784:	f103 000c 	add.w	r0, r3, #12
 8003788:	e840 2100 	strex	r1, r2, [r0]
 800378c:	2900      	cmp	r1, #0
 800378e:	d1f3      	bne.n	8003778 <HAL_UART_IRQHandler+0x178>
 8003790:	6be0      	ldr	r0, [r4, #60]	@ 0x3c
 8003792:	f7fd fe37 	bl	8001404 <HAL_DMA_Abort>
 8003796:	2302      	movs	r3, #2
 8003798:	6363      	str	r3, [r4, #52]	@ 0x34
 800379a:	8de3      	ldrh	r3, [r4, #46]	@ 0x2e
 800379c:	8da1      	ldrh	r1, [r4, #44]	@ 0x2c
 800379e:	1ac9      	subs	r1, r1, r3
 80037a0:	b289      	uxth	r1, r1
 80037a2:	4620      	mov	r0, r4
 80037a4:	f7ff fed0 	bl	8003548 <HAL_UARTEx_RxEventCallback>
 80037a8:	e797      	b.n	80036da <HAL_UART_IRQHandler+0xda>
 80037aa:	8de2      	ldrh	r2, [r4, #46]	@ 0x2e
 80037ac:	8de1      	ldrh	r1, [r4, #46]	@ 0x2e
 80037ae:	b292      	uxth	r2, r2
 80037b0:	b289      	uxth	r1, r1
 80037b2:	2900      	cmp	r1, #0
 80037b4:	d091      	beq.n	80036da <HAL_UART_IRQHandler+0xda>
 80037b6:	8da1      	ldrh	r1, [r4, #44]	@ 0x2c
 80037b8:	1a89      	subs	r1, r1, r2
 80037ba:	b289      	uxth	r1, r1
 80037bc:	2900      	cmp	r1, #0
 80037be:	d08c      	beq.n	80036da <HAL_UART_IRQHandler+0xda>
 80037c0:	f103 020c 	add.w	r2, r3, #12
 80037c4:	e852 2f00 	ldrex	r2, [r2]
 80037c8:	f422 7290 	bic.w	r2, r2, #288	@ 0x120
 80037cc:	f103 050c 	add.w	r5, r3, #12
 80037d0:	e845 2000 	strex	r0, r2, [r5]
 80037d4:	2800      	cmp	r0, #0
 80037d6:	d1f3      	bne.n	80037c0 <HAL_UART_IRQHandler+0x1c0>
 80037d8:	f103 0214 	add.w	r2, r3, #20
 80037dc:	e852 2f00 	ldrex	r2, [r2]
 80037e0:	f022 0201 	bic.w	r2, r2, #1
 80037e4:	f103 0514 	add.w	r5, r3, #20
 80037e8:	e845 2000 	strex	r0, r2, [r5]
 80037ec:	2800      	cmp	r0, #0
 80037ee:	d1f3      	bne.n	80037d8 <HAL_UART_IRQHandler+0x1d8>
 80037f0:	2220      	movs	r2, #32
 80037f2:	f884 2042 	strb.w	r2, [r4, #66]	@ 0x42
 80037f6:	6320      	str	r0, [r4, #48]	@ 0x30
 80037f8:	f103 020c 	add.w	r2, r3, #12
 80037fc:	e852 2f00 	ldrex	r2, [r2]
 8003800:	f022 0210 	bic.w	r2, r2, #16
 8003804:	f103 050c 	add.w	r5, r3, #12
 8003808:	e845 2000 	strex	r0, r2, [r5]
 800380c:	2800      	cmp	r0, #0
 800380e:	d1f3      	bne.n	80037f8 <HAL_UART_IRQHandler+0x1f8>
 8003810:	2302      	movs	r3, #2
 8003812:	6363      	str	r3, [r4, #52]	@ 0x34
 8003814:	e7c5      	b.n	80037a2 <HAL_UART_IRQHandler+0x1a2>
 8003816:	0616      	lsls	r6, r2, #24
 8003818:	d528      	bpl.n	800386c <HAL_UART_IRQHandler+0x26c>
 800381a:	060d      	lsls	r5, r1, #24
 800381c:	d526      	bpl.n	800386c <HAL_UART_IRQHandler+0x26c>
 800381e:	f894 2041 	ldrb.w	r2, [r4, #65]	@ 0x41
 8003822:	2a21      	cmp	r2, #33	@ 0x21
 8003824:	f47f af59 	bne.w	80036da <HAL_UART_IRQHandler+0xda>
 8003828:	68a1      	ldr	r1, [r4, #8]
 800382a:	6a22      	ldr	r2, [r4, #32]
 800382c:	f5b1 5f80 	cmp.w	r1, #4096	@ 0x1000
 8003830:	d117      	bne.n	8003862 <HAL_UART_IRQHandler+0x262>
 8003832:	6921      	ldr	r1, [r4, #16]
 8003834:	b9a9      	cbnz	r1, 8003862 <HAL_UART_IRQHandler+0x262>
 8003836:	f832 1b02 	ldrh.w	r1, [r2], #2
 800383a:	f3c1 0108 	ubfx	r1, r1, #0, #9
 800383e:	6059      	str	r1, [r3, #4]
 8003840:	6222      	str	r2, [r4, #32]
 8003842:	8ce2      	ldrh	r2, [r4, #38]	@ 0x26
 8003844:	3a01      	subs	r2, #1
 8003846:	b292      	uxth	r2, r2
 8003848:	84e2      	strh	r2, [r4, #38]	@ 0x26
 800384a:	2a00      	cmp	r2, #0
 800384c:	f47f af45 	bne.w	80036da <HAL_UART_IRQHandler+0xda>
 8003850:	68da      	ldr	r2, [r3, #12]
 8003852:	f022 0280 	bic.w	r2, r2, #128	@ 0x80
 8003856:	60da      	str	r2, [r3, #12]
 8003858:	68da      	ldr	r2, [r3, #12]
 800385a:	f042 0240 	orr.w	r2, r2, #64	@ 0x40
 800385e:	60da      	str	r2, [r3, #12]
 8003860:	e73b      	b.n	80036da <HAL_UART_IRQHandler+0xda>
 8003862:	1c51      	adds	r1, r2, #1
 8003864:	6221      	str	r1, [r4, #32]
 8003866:	7812      	ldrb	r2, [r2, #0]
 8003868:	605a      	str	r2, [r3, #4]
 800386a:	e7ea      	b.n	8003842 <HAL_UART_IRQHandler+0x242>
 800386c:	0650      	lsls	r0, r2, #25
 800386e:	f57f af34 	bpl.w	80036da <HAL_UART_IRQHandler+0xda>
 8003872:	064a      	lsls	r2, r1, #25
 8003874:	f57f af31 	bpl.w	80036da <HAL_UART_IRQHandler+0xda>
 8003878:	68da      	ldr	r2, [r3, #12]
 800387a:	4620      	mov	r0, r4
 800387c:	f022 0240 	bic.w	r2, r2, #64	@ 0x40
 8003880:	60da      	str	r2, [r3, #12]
 8003882:	2320      	movs	r3, #32
 8003884:	f884 3041 	strb.w	r3, [r4, #65]	@ 0x41
 8003888:	f7ff fe53 	bl	8003532 <HAL_UART_TxCpltCallback>
 800388c:	e725      	b.n	80036da <HAL_UART_IRQHandler+0xda>
 800388e:	bf00      	nop
 8003890:	08003539 	.word	0x08003539

08003894 <UART_Start_Receive_IT>:
 8003894:	2300      	movs	r3, #0
 8003896:	85c2      	strh	r2, [r0, #46]	@ 0x2e
 8003898:	6443      	str	r3, [r0, #68]	@ 0x44
 800389a:	2322      	movs	r3, #34	@ 0x22
 800389c:	8582      	strh	r2, [r0, #44]	@ 0x2c
 800389e:	6902      	ldr	r2, [r0, #16]
 80038a0:	f880 3042 	strb.w	r3, [r0, #66]	@ 0x42
 80038a4:	6281      	str	r1, [r0, #40]	@ 0x28
 80038a6:	6803      	ldr	r3, [r0, #0]
 80038a8:	b11a      	cbz	r2, 80038b2 <UART_Start_Receive_IT+0x1e>
 80038aa:	68da      	ldr	r2, [r3, #12]
 80038ac:	f442 7280 	orr.w	r2, r2, #256	@ 0x100
 80038b0:	60da      	str	r2, [r3, #12]
 80038b2:	695a      	ldr	r2, [r3, #20]
 80038b4:	2000      	movs	r0, #0
 80038b6:	f042 0201 	orr.w	r2, r2, #1
 80038ba:	615a      	str	r2, [r3, #20]
 80038bc:	68da      	ldr	r2, [r3, #12]
 80038be:	f042 0220 	orr.w	r2, r2, #32
 80038c2:	60da      	str	r2, [r3, #12]
 80038c4:	4770      	bx	lr

080038c6 <HAL_UART_Receive_IT>:
 80038c6:	b570      	push	{r4, r5, r6, lr}
 80038c8:	f890 6042 	ldrb.w	r6, [r0, #66]	@ 0x42
 80038cc:	2e20      	cmp	r6, #32
 80038ce:	d107      	bne.n	80038e0 <HAL_UART_Receive_IT+0x1a>
 80038d0:	b141      	cbz	r1, 80038e4 <HAL_UART_Receive_IT+0x1e>
 80038d2:	b13a      	cbz	r2, 80038e4 <HAL_UART_Receive_IT+0x1e>
 80038d4:	2400      	movs	r4, #0
 80038d6:	6304      	str	r4, [r0, #48]	@ 0x30
 80038d8:	f7ff ffdc 	bl	8003894 <UART_Start_Receive_IT>
 80038dc:	4620      	mov	r0, r4
 80038de:	bd70      	pop	{r4, r5, r6, pc}
 80038e0:	2002      	movs	r0, #2
 80038e2:	e7fc      	b.n	80038de <HAL_UART_Receive_IT+0x18>
 80038e4:	2001      	movs	r0, #1
 80038e6:	e7fa      	b.n	80038de <HAL_UART_Receive_IT+0x18>

080038e8 <_Znwj>:
 80038e8:	2801      	cmp	r0, #1
 80038ea:	bf38      	it	cc
 80038ec:	2001      	movcc	r0, #1
 80038ee:	b510      	push	{r4, lr}
 80038f0:	4604      	mov	r4, r0
 80038f2:	4620      	mov	r0, r4
 80038f4:	f000 fa0e 	bl	8003d14 <malloc>
 80038f8:	b100      	cbz	r0, 80038fc <_Znwj+0x14>
 80038fa:	bd10      	pop	{r4, pc}
 80038fc:	f000 f9fa 	bl	8003cf4 <_ZSt15get_new_handlerv>
 8003900:	b908      	cbnz	r0, 8003906 <_Znwj+0x1e>
 8003902:	f000 f9ff 	bl	8003d04 <abort>
 8003906:	4780      	blx	r0
 8003908:	e7f3      	b.n	80038f2 <_Znwj+0xa>

0800390a <_ZNSt8__detail15_List_node_base7_M_hookEPS0_>:
 800390a:	684b      	ldr	r3, [r1, #4]
 800390c:	6001      	str	r1, [r0, #0]
 800390e:	6043      	str	r3, [r0, #4]
 8003910:	6018      	str	r0, [r3, #0]
 8003912:	6048      	str	r0, [r1, #4]
 8003914:	4770      	bx	lr

08003916 <_ZSt17__throw_bad_allocv>:
 8003916:	b508      	push	{r3, lr}
 8003918:	f000 f9f4 	bl	8003d04 <abort>

0800391c <_ZSt19__throw_logic_errorPKc>:
 800391c:	b508      	push	{r3, lr}
 800391e:	f000 f9f1 	bl	8003d04 <abort>

08003922 <_ZSt20__throw_length_errorPKc>:
 8003922:	b508      	push	{r3, lr}
 8003924:	f000 f9ee 	bl	8003d04 <abort>

08003928 <_ZSt24__throw_out_of_range_fmtPKcz>:
 8003928:	b40f      	push	{r0, r1, r2, r3}
 800392a:	b508      	push	{r3, lr}
 800392c:	f000 f9ea 	bl	8003d04 <abort>

08003930 <_ZSt25__throw_bad_function_callv>:
 8003930:	b508      	push	{r3, lr}
 8003932:	f000 f9e7 	bl	8003d04 <abort>

08003936 <_ZNSt11char_traitsIcE4copyEPcPKcj.isra.0>:
 8003936:	b10a      	cbz	r2, 800393c <_ZNSt11char_traitsIcE4copyEPcPKcj.isra.0+0x6>
 8003938:	f000 bb5c 	b.w	8003ff4 <memcpy>
 800393c:	4770      	bx	lr

0800393e <_ZNSt7__cxx1112basic_stringIcSt11char_traitsIcESaIcEE11_S_allocateERS3_j>:
 800393e:	1e08      	subs	r0, r1, #0
 8003940:	b508      	push	{r3, lr}
 8003942:	da01      	bge.n	8003948 <_ZNSt7__cxx1112basic_stringIcSt11char_traitsIcESaIcEE11_S_allocateERS3_j+0xa>
 8003944:	f7ff ffe7 	bl	8003916 <_ZSt17__throw_bad_allocv>
 8003948:	e8bd 4008 	ldmia.w	sp!, {r3, lr}
 800394c:	f7ff bfcc 	b.w	80038e8 <_Znwj>

08003950 <_ZNKSt7__cxx1112basic_stringIcSt11char_traitsIcESaIcEE11_M_is_localEv>:
 8003950:	f850 3b08 	ldr.w	r3, [r0], #8
 8003954:	1a1b      	subs	r3, r3, r0
 8003956:	4258      	negs	r0, r3
 8003958:	4158      	adcs	r0, r3
 800395a:	4770      	bx	lr

0800395c <_ZNSt7__cxx1112basic_stringIcSt11char_traitsIcESaIcEE9_M_createERjj>:
 800395c:	680b      	ldr	r3, [r1, #0]
 800395e:	b510      	push	{r4, lr}
 8003960:	f1b3 4f80 	cmp.w	r3, #1073741824	@ 0x40000000
 8003964:	d302      	bcc.n	800396c <_ZNSt7__cxx1112basic_stringIcSt11char_traitsIcESaIcEE9_M_createERjj+0x10>
 8003966:	480b      	ldr	r0, [pc, #44]	@ (8003994 <_ZNSt7__cxx1112basic_stringIcSt11char_traitsIcESaIcEE9_M_createERjj+0x38>)
 8003968:	f7ff ffdb 	bl	8003922 <_ZSt20__throw_length_errorPKc>
 800396c:	4293      	cmp	r3, r2
 800396e:	d90c      	bls.n	800398a <_ZNSt7__cxx1112basic_stringIcSt11char_traitsIcESaIcEE9_M_createERjj+0x2e>
 8003970:	ebb3 0f42 	cmp.w	r3, r2, lsl #1
 8003974:	ea4f 0442 	mov.w	r4, r2, lsl #1
 8003978:	d207      	bcs.n	800398a <_ZNSt7__cxx1112basic_stringIcSt11char_traitsIcESaIcEE9_M_createERjj+0x2e>
 800397a:	f1b4 4f80 	cmp.w	r4, #1073741824	@ 0x40000000
 800397e:	bf2d      	iteet	cs
 8003980:	f06f 4340 	mvncs.w	r3, #3221225472	@ 0xc0000000
 8003984:	4623      	movcc	r3, r4
 8003986:	600c      	strcc	r4, [r1, #0]
 8003988:	600b      	strcs	r3, [r1, #0]
 800398a:	1c59      	adds	r1, r3, #1
 800398c:	f7ff ffd7 	bl	800393e <_ZNSt7__cxx1112basic_stringIcSt11char_traitsIcESaIcEE11_S_allocateERS3_j>
 8003990:	bd10      	pop	{r4, pc}
 8003992:	bf00      	nop
 8003994:	08004227 	.word	0x08004227

08003998 <_ZNSt7__cxx1112basic_stringIcSt11char_traitsIcESaIcEE10_M_disposeEv>:
 8003998:	b510      	push	{r4, lr}
 800399a:	4604      	mov	r4, r0
 800399c:	f7ff ffd8 	bl	8003950 <_ZNKSt7__cxx1112basic_stringIcSt11char_traitsIcESaIcEE11_M_is_localEv>
 80039a0:	b920      	cbnz	r0, 80039ac <_ZNSt7__cxx1112basic_stringIcSt11char_traitsIcESaIcEE10_M_disposeEv+0x14>
 80039a2:	6820      	ldr	r0, [r4, #0]
 80039a4:	e8bd 4010 	ldmia.w	sp!, {r4, lr}
 80039a8:	f000 b9a2 	b.w	8003cf0 <_ZdlPv>
 80039ac:	bd10      	pop	{r4, pc}
	...

080039b0 <_ZNKSt7__cxx1112basic_stringIcSt11char_traitsIcESaIcEE8_M_checkEjPKc>:
 80039b0:	b508      	push	{r3, lr}
 80039b2:	4603      	mov	r3, r0
 80039b4:	4608      	mov	r0, r1
 80039b6:	685b      	ldr	r3, [r3, #4]
 80039b8:	4611      	mov	r1, r2
 80039ba:	4298      	cmp	r0, r3
 80039bc:	d903      	bls.n	80039c6 <_ZNKSt7__cxx1112basic_stringIcSt11char_traitsIcESaIcEE8_M_checkEjPKc+0x16>
 80039be:	4602      	mov	r2, r0
 80039c0:	4801      	ldr	r0, [pc, #4]	@ (80039c8 <_ZNKSt7__cxx1112basic_stringIcSt11char_traitsIcESaIcEE8_M_checkEjPKc+0x18>)
 80039c2:	f7ff ffb1 	bl	8003928 <_ZSt24__throw_out_of_range_fmtPKcz>
 80039c6:	bd08      	pop	{r3, pc}
 80039c8:	0800423f 	.word	0x0800423f

080039cc <_ZNKSt7__cxx1112basic_stringIcSt11char_traitsIcESaIcEE15_M_check_lengthEjjPKc>:
 80039cc:	6840      	ldr	r0, [r0, #4]
 80039ce:	f101 4180 	add.w	r1, r1, #1073741824	@ 0x40000000
 80039d2:	3901      	subs	r1, #1
 80039d4:	1a09      	subs	r1, r1, r0
 80039d6:	4291      	cmp	r1, r2
 80039d8:	b508      	push	{r3, lr}
 80039da:	d202      	bcs.n	80039e2 <_ZNKSt7__cxx1112basic_stringIcSt11char_traitsIcESaIcEE15_M_check_lengthEjjPKc+0x16>
 80039dc:	4618      	mov	r0, r3
 80039de:	f7ff ffa0 	bl	8003922 <_ZSt20__throw_length_errorPKc>
 80039e2:	bd08      	pop	{r3, pc}

080039e4 <_ZNKSt7__cxx1112basic_stringIcSt11char_traitsIcESaIcEE11_M_disjunctEPKc>:
 80039e4:	6803      	ldr	r3, [r0, #0]
 80039e6:	428b      	cmp	r3, r1
 80039e8:	d806      	bhi.n	80039f8 <_ZNKSt7__cxx1112basic_stringIcSt11char_traitsIcESaIcEE11_M_disjunctEPKc+0x14>
 80039ea:	6842      	ldr	r2, [r0, #4]
 80039ec:	4413      	add	r3, r2
 80039ee:	4299      	cmp	r1, r3
 80039f0:	bf94      	ite	ls
 80039f2:	2000      	movls	r0, #0
 80039f4:	2001      	movhi	r0, #1
 80039f6:	4770      	bx	lr
 80039f8:	2001      	movs	r0, #1
 80039fa:	4770      	bx	lr

080039fc <_ZNSt7__cxx1112basic_stringIcSt11char_traitsIcESaIcEE7_S_copyEPcPKcj>:
 80039fc:	2a01      	cmp	r2, #1
 80039fe:	b410      	push	{r4}
 8003a00:	d103      	bne.n	8003a0a <_ZNSt7__cxx1112basic_stringIcSt11char_traitsIcESaIcEE7_S_copyEPcPKcj+0xe>
 8003a02:	780a      	ldrb	r2, [r1, #0]
 8003a04:	bc10      	pop	{r4}
 8003a06:	7002      	strb	r2, [r0, #0]
 8003a08:	4770      	bx	lr
 8003a0a:	bc10      	pop	{r4}
 8003a0c:	f7ff bf93 	b.w	8003936 <_ZNSt11char_traitsIcE4copyEPcPKcj.isra.0>

08003a10 <_ZNSt7__cxx1112basic_stringIcSt11char_traitsIcESaIcEE7_S_moveEPcPKcj>:
 8003a10:	2a01      	cmp	r2, #1
 8003a12:	b430      	push	{r4, r5}
 8003a14:	d103      	bne.n	8003a1e <_ZNSt7__cxx1112basic_stringIcSt11char_traitsIcESaIcEE7_S_moveEPcPKcj+0xe>
 8003a16:	780b      	ldrb	r3, [r1, #0]
 8003a18:	7003      	strb	r3, [r0, #0]
 8003a1a:	bc30      	pop	{r4, r5}
 8003a1c:	4770      	bx	lr
 8003a1e:	2a00      	cmp	r2, #0
 8003a20:	d0fb      	beq.n	8003a1a <_ZNSt7__cxx1112basic_stringIcSt11char_traitsIcESaIcEE7_S_moveEPcPKcj+0xa>
 8003a22:	bc30      	pop	{r4, r5}
 8003a24:	f000 ba44 	b.w	8003eb0 <memmove>

08003a28 <_ZNSt7__cxx1112basic_stringIcSt11char_traitsIcESaIcEE13_S_copy_charsEPcS5_S5_>:
 8003a28:	b508      	push	{r3, lr}
 8003a2a:	1a52      	subs	r2, r2, r1
 8003a2c:	f7ff ffe6 	bl	80039fc <_ZNSt7__cxx1112basic_stringIcSt11char_traitsIcESaIcEE7_S_copyEPcPKcj>
 8003a30:	bd08      	pop	{r3, pc}

08003a32 <_ZNSt7__cxx1112basic_stringIcSt11char_traitsIcESaIcEE13_S_copy_charsEPcPKcS7_>:
 8003a32:	b508      	push	{r3, lr}
 8003a34:	1a52      	subs	r2, r2, r1
 8003a36:	f7ff ffe1 	bl	80039fc <_ZNSt7__cxx1112basic_stringIcSt11char_traitsIcESaIcEE7_S_copyEPcPKcj>
 8003a3a:	bd08      	pop	{r3, pc}

08003a3c <_ZNKSt7__cxx1112basic_stringIcSt11char_traitsIcESaIcEE8capacityEv>:
 8003a3c:	b510      	push	{r4, lr}
 8003a3e:	4604      	mov	r4, r0
 8003a40:	f7ff ff86 	bl	8003950 <_ZNKSt7__cxx1112basic_stringIcSt11char_traitsIcESaIcEE11_M_is_localEv>
 8003a44:	b908      	cbnz	r0, 8003a4a <_ZNKSt7__cxx1112basic_stringIcSt11char_traitsIcESaIcEE8capacityEv+0xe>
 8003a46:	68a0      	ldr	r0, [r4, #8]
 8003a48:	bd10      	pop	{r4, pc}
 8003a4a:	200f      	movs	r0, #15
 8003a4c:	e7fc      	b.n	8003a48 <_ZNKSt7__cxx1112basic_stringIcSt11char_traitsIcESaIcEE8capacityEv+0xc>

08003a4e <_ZNSt7__cxx1112basic_stringIcSt11char_traitsIcESaIcEE9_M_assignERKS4_>:
 8003a4e:	4288      	cmp	r0, r1
 8003a50:	b5f7      	push	{r0, r1, r2, r4, r5, r6, r7, lr}
 8003a52:	4604      	mov	r4, r0
 8003a54:	460e      	mov	r6, r1
 8003a56:	d01d      	beq.n	8003a94 <_ZNSt7__cxx1112basic_stringIcSt11char_traitsIcESaIcEE9_M_assignERKS4_+0x46>
 8003a58:	684d      	ldr	r5, [r1, #4]
 8003a5a:	f7ff ffef 	bl	8003a3c <_ZNKSt7__cxx1112basic_stringIcSt11char_traitsIcESaIcEE8capacityEv>
 8003a5e:	42a8      	cmp	r0, r5
 8003a60:	4602      	mov	r2, r0
 8003a62:	d211      	bcs.n	8003a88 <_ZNSt7__cxx1112basic_stringIcSt11char_traitsIcESaIcEE9_M_assignERKS4_+0x3a>
 8003a64:	a901      	add	r1, sp, #4
 8003a66:	4620      	mov	r0, r4
 8003a68:	9501      	str	r5, [sp, #4]
 8003a6a:	f7ff ff77 	bl	800395c <_ZNSt7__cxx1112basic_stringIcSt11char_traitsIcESaIcEE9_M_createERjj>
 8003a6e:	4607      	mov	r7, r0
 8003a70:	4620      	mov	r0, r4
 8003a72:	f7ff ff91 	bl	8003998 <_ZNSt7__cxx1112basic_stringIcSt11char_traitsIcESaIcEE10_M_disposeEv>
 8003a76:	9b01      	ldr	r3, [sp, #4]
 8003a78:	6027      	str	r7, [r4, #0]
 8003a7a:	60a3      	str	r3, [r4, #8]
 8003a7c:	462a      	mov	r2, r5
 8003a7e:	6831      	ldr	r1, [r6, #0]
 8003a80:	6820      	ldr	r0, [r4, #0]
 8003a82:	f7ff ffbb 	bl	80039fc <_ZNSt7__cxx1112basic_stringIcSt11char_traitsIcESaIcEE7_S_copyEPcPKcj>
 8003a86:	e001      	b.n	8003a8c <_ZNSt7__cxx1112basic_stringIcSt11char_traitsIcESaIcEE9_M_assignERKS4_+0x3e>
 8003a88:	2d00      	cmp	r5, #0
 8003a8a:	d1f7      	bne.n	8003a7c <_ZNSt7__cxx1112basic_stringIcSt11char_traitsIcESaIcEE9_M_assignERKS4_+0x2e>
 8003a8c:	2200      	movs	r2, #0
 8003a8e:	6823      	ldr	r3, [r4, #0]
 8003a90:	6065      	str	r5, [r4, #4]
 8003a92:	555a      	strb	r2, [r3, r5]
 8003a94:	b003      	add	sp, #12
 8003a96:	bdf0      	pop	{r4, r5, r6, r7, pc}

08003a98 <_ZNSt7__cxx1112basic_stringIcSt11char_traitsIcESaIcEE9_M_mutateEjjPKcj>:
 8003a98:	e92d 47f3 	stmdb	sp!, {r0, r1, r4, r5, r6, r7, r8, r9, sl, lr}
 8003a9c:	9e0a      	ldr	r6, [sp, #40]	@ 0x28
 8003a9e:	461f      	mov	r7, r3
 8003aa0:	6843      	ldr	r3, [r0, #4]
 8003aa2:	eb01 0802 	add.w	r8, r1, r2
 8003aa6:	1ab2      	subs	r2, r6, r2
 8003aa8:	441a      	add	r2, r3
 8003aaa:	4604      	mov	r4, r0
 8003aac:	460d      	mov	r5, r1
 8003aae:	eba3 0908 	sub.w	r9, r3, r8
 8003ab2:	9201      	str	r2, [sp, #4]
 8003ab4:	f7ff ffc2 	bl	8003a3c <_ZNKSt7__cxx1112basic_stringIcSt11char_traitsIcESaIcEE8capacityEv>
 8003ab8:	a901      	add	r1, sp, #4
 8003aba:	4602      	mov	r2, r0
 8003abc:	4620      	mov	r0, r4
 8003abe:	f7ff ff4d 	bl	800395c <_ZNSt7__cxx1112basic_stringIcSt11char_traitsIcESaIcEE9_M_createERjj>
 8003ac2:	4682      	mov	sl, r0
 8003ac4:	b11d      	cbz	r5, 8003ace <_ZNSt7__cxx1112basic_stringIcSt11char_traitsIcESaIcEE9_M_mutateEjjPKcj+0x36>
 8003ac6:	462a      	mov	r2, r5
 8003ac8:	6821      	ldr	r1, [r4, #0]
 8003aca:	f7ff ff97 	bl	80039fc <_ZNSt7__cxx1112basic_stringIcSt11char_traitsIcESaIcEE7_S_copyEPcPKcj>
 8003ace:	b137      	cbz	r7, 8003ade <_ZNSt7__cxx1112basic_stringIcSt11char_traitsIcESaIcEE9_M_mutateEjjPKcj+0x46>
 8003ad0:	b12e      	cbz	r6, 8003ade <_ZNSt7__cxx1112basic_stringIcSt11char_traitsIcESaIcEE9_M_mutateEjjPKcj+0x46>
 8003ad2:	4632      	mov	r2, r6
 8003ad4:	4639      	mov	r1, r7
 8003ad6:	eb0a 0005 	add.w	r0, sl, r5
 8003ada:	f7ff ff8f 	bl	80039fc <_ZNSt7__cxx1112basic_stringIcSt11char_traitsIcESaIcEE7_S_copyEPcPKcj>
 8003ade:	f1b9 0f00 	cmp.w	r9, #0
 8003ae2:	d007      	beq.n	8003af4 <_ZNSt7__cxx1112basic_stringIcSt11char_traitsIcESaIcEE9_M_mutateEjjPKcj+0x5c>
 8003ae4:	6821      	ldr	r1, [r4, #0]
 8003ae6:	4435      	add	r5, r6
 8003ae8:	464a      	mov	r2, r9
 8003aea:	4441      	add	r1, r8
 8003aec:	eb0a 0005 	add.w	r0, sl, r5
 8003af0:	f7ff ff84 	bl	80039fc <_ZNSt7__cxx1112basic_stringIcSt11char_traitsIcESaIcEE7_S_copyEPcPKcj>
 8003af4:	4620      	mov	r0, r4
 8003af6:	f7ff ff4f 	bl	8003998 <_ZNSt7__cxx1112basic_stringIcSt11char_traitsIcESaIcEE10_M_disposeEv>
 8003afa:	9b01      	ldr	r3, [sp, #4]
 8003afc:	f8c4 a000 	str.w	sl, [r4]
 8003b00:	60a3      	str	r3, [r4, #8]
 8003b02:	b002      	add	sp, #8
 8003b04:	e8bd 87f0 	ldmia.w	sp!, {r4, r5, r6, r7, r8, r9, sl, pc}

08003b08 <_ZNSt7__cxx1112basic_stringIcSt11char_traitsIcESaIcEE7reserveEj>:
 8003b08:	b537      	push	{r0, r1, r2, r4, r5, lr}
 8003b0a:	4604      	mov	r4, r0
 8003b0c:	9101      	str	r1, [sp, #4]
 8003b0e:	f7ff ff95 	bl	8003a3c <_ZNKSt7__cxx1112basic_stringIcSt11char_traitsIcESaIcEE8capacityEv>
 8003b12:	9b01      	ldr	r3, [sp, #4]
 8003b14:	4602      	mov	r2, r0
 8003b16:	4283      	cmp	r3, r0
 8003b18:	d90f      	bls.n	8003b3a <_ZNSt7__cxx1112basic_stringIcSt11char_traitsIcESaIcEE7reserveEj+0x32>
 8003b1a:	a901      	add	r1, sp, #4
 8003b1c:	4620      	mov	r0, r4
 8003b1e:	f7ff ff1d 	bl	800395c <_ZNSt7__cxx1112basic_stringIcSt11char_traitsIcESaIcEE9_M_createERjj>
 8003b22:	4605      	mov	r5, r0
 8003b24:	6862      	ldr	r2, [r4, #4]
 8003b26:	6821      	ldr	r1, [r4, #0]
 8003b28:	3201      	adds	r2, #1
 8003b2a:	f7ff ff67 	bl	80039fc <_ZNSt7__cxx1112basic_stringIcSt11char_traitsIcESaIcEE7_S_copyEPcPKcj>
 8003b2e:	4620      	mov	r0, r4
 8003b30:	f7ff ff32 	bl	8003998 <_ZNSt7__cxx1112basic_stringIcSt11char_traitsIcESaIcEE10_M_disposeEv>
 8003b34:	9b01      	ldr	r3, [sp, #4]
 8003b36:	6025      	str	r5, [r4, #0]
 8003b38:	60a3      	str	r3, [r4, #8]
 8003b3a:	b003      	add	sp, #12
 8003b3c:	bd30      	pop	{r4, r5, pc}

08003b3e <_ZNSt7__cxx1112basic_stringIcSt11char_traitsIcESaIcEE15_M_replace_coldEPcjPKcjj>:
 8003b3e:	e92d 41f0 	stmdb	sp!, {r4, r5, r6, r7, r8, lr}
 8003b42:	460d      	mov	r5, r1
 8003b44:	e9dd 6806 	ldrd	r6, r8, [sp, #24]
 8003b48:	4617      	mov	r7, r2
 8003b4a:	461c      	mov	r4, r3
 8003b4c:	b136      	cbz	r6, 8003b5c <_ZNSt7__cxx1112basic_stringIcSt11char_traitsIcESaIcEE15_M_replace_coldEPcjPKcjj+0x1e>
 8003b4e:	4296      	cmp	r6, r2
 8003b50:	d830      	bhi.n	8003bb4 <_ZNSt7__cxx1112basic_stringIcSt11char_traitsIcESaIcEE15_M_replace_coldEPcjPKcjj+0x76>
 8003b52:	4632      	mov	r2, r6
 8003b54:	4619      	mov	r1, r3
 8003b56:	4628      	mov	r0, r5
 8003b58:	f7ff ff5a 	bl	8003a10 <_ZNSt7__cxx1112basic_stringIcSt11char_traitsIcESaIcEE7_S_moveEPcPKcj>
 8003b5c:	f1b8 0f00 	cmp.w	r8, #0
 8003b60:	d011      	beq.n	8003b86 <_ZNSt7__cxx1112basic_stringIcSt11char_traitsIcESaIcEE15_M_replace_coldEPcjPKcjj+0x48>
 8003b62:	42be      	cmp	r6, r7
 8003b64:	d00f      	beq.n	8003b86 <_ZNSt7__cxx1112basic_stringIcSt11char_traitsIcESaIcEE15_M_replace_coldEPcjPKcjj+0x48>
 8003b66:	4642      	mov	r2, r8
 8003b68:	19e9      	adds	r1, r5, r7
 8003b6a:	19a8      	adds	r0, r5, r6
 8003b6c:	f7ff ff50 	bl	8003a10 <_ZNSt7__cxx1112basic_stringIcSt11char_traitsIcESaIcEE7_S_moveEPcPKcj>
 8003b70:	42be      	cmp	r6, r7
 8003b72:	d908      	bls.n	8003b86 <_ZNSt7__cxx1112basic_stringIcSt11char_traitsIcESaIcEE15_M_replace_coldEPcjPKcjj+0x48>
 8003b74:	19eb      	adds	r3, r5, r7
 8003b76:	19a2      	adds	r2, r4, r6
 8003b78:	4293      	cmp	r3, r2
 8003b7a:	d306      	bcc.n	8003b8a <_ZNSt7__cxx1112basic_stringIcSt11char_traitsIcESaIcEE15_M_replace_coldEPcjPKcjj+0x4c>
 8003b7c:	4632      	mov	r2, r6
 8003b7e:	4621      	mov	r1, r4
 8003b80:	4628      	mov	r0, r5
 8003b82:	f7ff ff45 	bl	8003a10 <_ZNSt7__cxx1112basic_stringIcSt11char_traitsIcESaIcEE7_S_moveEPcPKcj>
 8003b86:	e8bd 81f0 	ldmia.w	sp!, {r4, r5, r6, r7, r8, pc}
 8003b8a:	42a3      	cmp	r3, r4
 8003b8c:	d808      	bhi.n	8003ba0 <_ZNSt7__cxx1112basic_stringIcSt11char_traitsIcESaIcEE15_M_replace_coldEPcjPKcjj+0x62>
 8003b8e:	4632      	mov	r2, r6
 8003b90:	4628      	mov	r0, r5
 8003b92:	1b64      	subs	r4, r4, r5
 8003b94:	1be4      	subs	r4, r4, r7
 8003b96:	4434      	add	r4, r6
 8003b98:	1929      	adds	r1, r5, r4
 8003b9a:	f7ff ff2f 	bl	80039fc <_ZNSt7__cxx1112basic_stringIcSt11char_traitsIcESaIcEE7_S_copyEPcPKcj>
 8003b9e:	e7f2      	b.n	8003b86 <_ZNSt7__cxx1112basic_stringIcSt11char_traitsIcESaIcEE15_M_replace_coldEPcjPKcjj+0x48>
 8003ba0:	1b1f      	subs	r7, r3, r4
 8003ba2:	463a      	mov	r2, r7
 8003ba4:	4621      	mov	r1, r4
 8003ba6:	4628      	mov	r0, r5
 8003ba8:	f7ff ff32 	bl	8003a10 <_ZNSt7__cxx1112basic_stringIcSt11char_traitsIcESaIcEE7_S_moveEPcPKcj>
 8003bac:	1bf2      	subs	r2, r6, r7
 8003bae:	19a9      	adds	r1, r5, r6
 8003bb0:	19e8      	adds	r0, r5, r7
 8003bb2:	e7f2      	b.n	8003b9a <_ZNSt7__cxx1112basic_stringIcSt11char_traitsIcESaIcEE15_M_replace_coldEPcjPKcjj+0x5c>
 8003bb4:	f1b8 0f00 	cmp.w	r8, #0
 8003bb8:	d1d5      	bne.n	8003b66 <_ZNSt7__cxx1112basic_stringIcSt11char_traitsIcESaIcEE15_M_replace_coldEPcjPKcjj+0x28>
 8003bba:	e7db      	b.n	8003b74 <_ZNSt7__cxx1112basic_stringIcSt11char_traitsIcESaIcEE15_M_replace_coldEPcjPKcjj+0x36>

08003bbc <_ZNSt7__cxx1112basic_stringIcSt11char_traitsIcESaIcEE10_M_replaceEjjPKcj>:
 8003bbc:	e92d 4ff7 	stmdb	sp!, {r0, r1, r2, r4, r5, r6, r7, r8, r9, sl, fp, lr}
 8003bc0:	4615      	mov	r5, r2
 8003bc2:	4604      	mov	r4, r0
 8003bc4:	9e0c      	ldr	r6, [sp, #48]	@ 0x30
 8003bc6:	460f      	mov	r7, r1
 8003bc8:	4632      	mov	r2, r6
 8003bca:	4629      	mov	r1, r5
 8003bcc:	4698      	mov	r8, r3
 8003bce:	4b21      	ldr	r3, [pc, #132]	@ (8003c54 <_ZNSt7__cxx1112basic_stringIcSt11char_traitsIcESaIcEE10_M_replaceEjjPKcj+0x98>)
 8003bd0:	f7ff fefc 	bl	80039cc <_ZNKSt7__cxx1112basic_stringIcSt11char_traitsIcESaIcEE15_M_check_lengthEjjPKc>
 8003bd4:	4620      	mov	r0, r4
 8003bd6:	f7ff ff31 	bl	8003a3c <_ZNKSt7__cxx1112basic_stringIcSt11char_traitsIcESaIcEE8capacityEv>
 8003bda:	f8d4 b004 	ldr.w	fp, [r4, #4]
 8003bde:	eba6 0a05 	sub.w	sl, r6, r5
 8003be2:	44da      	add	sl, fp
 8003be4:	4550      	cmp	r0, sl
 8003be6:	d32d      	bcc.n	8003c44 <_ZNSt7__cxx1112basic_stringIcSt11char_traitsIcESaIcEE10_M_replaceEjjPKcj+0x88>
 8003be8:	6823      	ldr	r3, [r4, #0]
 8003bea:	4641      	mov	r1, r8
 8003bec:	eb03 0907 	add.w	r9, r3, r7
 8003bf0:	4620      	mov	r0, r4
 8003bf2:	442f      	add	r7, r5
 8003bf4:	ebab 0707 	sub.w	r7, fp, r7
 8003bf8:	f7ff fef4 	bl	80039e4 <_ZNKSt7__cxx1112basic_stringIcSt11char_traitsIcESaIcEE11_M_disjunctEPKc>
 8003bfc:	b1c8      	cbz	r0, 8003c32 <_ZNSt7__cxx1112basic_stringIcSt11char_traitsIcESaIcEE10_M_replaceEjjPKcj+0x76>
 8003bfe:	b147      	cbz	r7, 8003c12 <_ZNSt7__cxx1112basic_stringIcSt11char_traitsIcESaIcEE10_M_replaceEjjPKcj+0x56>
 8003c00:	42b5      	cmp	r5, r6
 8003c02:	d006      	beq.n	8003c12 <_ZNSt7__cxx1112basic_stringIcSt11char_traitsIcESaIcEE10_M_replaceEjjPKcj+0x56>
 8003c04:	463a      	mov	r2, r7
 8003c06:	eb09 0105 	add.w	r1, r9, r5
 8003c0a:	eb09 0006 	add.w	r0, r9, r6
 8003c0e:	f7ff feff 	bl	8003a10 <_ZNSt7__cxx1112basic_stringIcSt11char_traitsIcESaIcEE7_S_moveEPcPKcj>
 8003c12:	b126      	cbz	r6, 8003c1e <_ZNSt7__cxx1112basic_stringIcSt11char_traitsIcESaIcEE10_M_replaceEjjPKcj+0x62>
 8003c14:	4632      	mov	r2, r6
 8003c16:	4641      	mov	r1, r8
 8003c18:	4648      	mov	r0, r9
 8003c1a:	f7ff feef 	bl	80039fc <_ZNSt7__cxx1112basic_stringIcSt11char_traitsIcESaIcEE7_S_copyEPcPKcj>
 8003c1e:	2200      	movs	r2, #0
 8003c20:	4620      	mov	r0, r4
 8003c22:	6823      	ldr	r3, [r4, #0]
 8003c24:	f8c4 a004 	str.w	sl, [r4, #4]
 8003c28:	f803 200a 	strb.w	r2, [r3, sl]
 8003c2c:	b003      	add	sp, #12
 8003c2e:	e8bd 8ff0 	ldmia.w	sp!, {r4, r5, r6, r7, r8, r9, sl, fp, pc}
 8003c32:	4643      	mov	r3, r8
 8003c34:	462a      	mov	r2, r5
 8003c36:	4649      	mov	r1, r9
 8003c38:	4620      	mov	r0, r4
 8003c3a:	e9cd 6700 	strd	r6, r7, [sp]
 8003c3e:	f7ff ff7e 	bl	8003b3e <_ZNSt7__cxx1112basic_stringIcSt11char_traitsIcESaIcEE15_M_replace_coldEPcjPKcjj>
 8003c42:	e7ec      	b.n	8003c1e <_ZNSt7__cxx1112basic_stringIcSt11char_traitsIcESaIcEE10_M_replaceEjjPKcj+0x62>
 8003c44:	4643      	mov	r3, r8
 8003c46:	462a      	mov	r2, r5
 8003c48:	4639      	mov	r1, r7
 8003c4a:	4620      	mov	r0, r4
 8003c4c:	9600      	str	r6, [sp, #0]
 8003c4e:	f7ff ff23 	bl	8003a98 <_ZNSt7__cxx1112basic_stringIcSt11char_traitsIcESaIcEE9_M_mutateEjjPKcj>
 8003c52:	e7e4      	b.n	8003c1e <_ZNSt7__cxx1112basic_stringIcSt11char_traitsIcESaIcEE10_M_replaceEjjPKcj+0x62>
 8003c54:	0800428c 	.word	0x0800428c

08003c58 <_ZNSt7__cxx1112basic_stringIcSt11char_traitsIcESaIcEE7replaceEjjPKcj>:
 8003c58:	b5f7      	push	{r0, r1, r2, r4, r5, r6, r7, lr}
 8003c5a:	4604      	mov	r4, r0
 8003c5c:	460f      	mov	r7, r1
 8003c5e:	4615      	mov	r5, r2
 8003c60:	4a08      	ldr	r2, [pc, #32]	@ (8003c84 <_ZNSt7__cxx1112basic_stringIcSt11char_traitsIcESaIcEE7replaceEjjPKcj+0x2c>)
 8003c62:	461e      	mov	r6, r3
 8003c64:	f7ff fea4 	bl	80039b0 <_ZNKSt7__cxx1112basic_stringIcSt11char_traitsIcESaIcEE8_M_checkEjPKc>
 8003c68:	6862      	ldr	r2, [r4, #4]
 8003c6a:	9b08      	ldr	r3, [sp, #32]
 8003c6c:	1bd2      	subs	r2, r2, r7
 8003c6e:	42aa      	cmp	r2, r5
 8003c70:	4601      	mov	r1, r0
 8003c72:	9300      	str	r3, [sp, #0]
 8003c74:	bf28      	it	cs
 8003c76:	462a      	movcs	r2, r5
 8003c78:	4633      	mov	r3, r6
 8003c7a:	4620      	mov	r0, r4
 8003c7c:	f7ff ff9e 	bl	8003bbc <_ZNSt7__cxx1112basic_stringIcSt11char_traitsIcESaIcEE10_M_replaceEjjPKcj>
 8003c80:	b003      	add	sp, #12
 8003c82:	bdf0      	pop	{r4, r5, r6, r7, pc}
 8003c84:	08004276 	.word	0x08004276

08003c88 <_ZNSt7__cxx1112basic_stringIcSt11char_traitsIcESaIcEE6insertEjPKc>:
 8003c88:	b573      	push	{r0, r1, r4, r5, r6, lr}
 8003c8a:	4605      	mov	r5, r0
 8003c8c:	4610      	mov	r0, r2
 8003c8e:	4614      	mov	r4, r2
 8003c90:	460e      	mov	r6, r1
 8003c92:	f7fc fa5b 	bl	800014c <strlen>
 8003c96:	4623      	mov	r3, r4
 8003c98:	9000      	str	r0, [sp, #0]
 8003c9a:	2200      	movs	r2, #0
 8003c9c:	4631      	mov	r1, r6
 8003c9e:	4628      	mov	r0, r5
 8003ca0:	f7ff ffda 	bl	8003c58 <_ZNSt7__cxx1112basic_stringIcSt11char_traitsIcESaIcEE7replaceEjjPKcj>
 8003ca4:	b002      	add	sp, #8
 8003ca6:	bd70      	pop	{r4, r5, r6, pc}

08003ca8 <_ZNSt7__cxx1112basic_stringIcSt11char_traitsIcESaIcEE9_M_appendEPKcj>:
 8003ca8:	e92d 41f3 	stmdb	sp!, {r0, r1, r4, r5, r6, r7, r8, lr}
 8003cac:	f8d0 8004 	ldr.w	r8, [r0, #4]
 8003cb0:	4604      	mov	r4, r0
 8003cb2:	eb02 0708 	add.w	r7, r2, r8
 8003cb6:	460e      	mov	r6, r1
 8003cb8:	4615      	mov	r5, r2
 8003cba:	f7ff febf 	bl	8003a3c <_ZNKSt7__cxx1112basic_stringIcSt11char_traitsIcESaIcEE8capacityEv>
 8003cbe:	42b8      	cmp	r0, r7
 8003cc0:	d30e      	bcc.n	8003ce0 <_ZNSt7__cxx1112basic_stringIcSt11char_traitsIcESaIcEE9_M_appendEPKcj+0x38>
 8003cc2:	b12d      	cbz	r5, 8003cd0 <_ZNSt7__cxx1112basic_stringIcSt11char_traitsIcESaIcEE9_M_appendEPKcj+0x28>
 8003cc4:	6820      	ldr	r0, [r4, #0]
 8003cc6:	462a      	mov	r2, r5
 8003cc8:	4631      	mov	r1, r6
 8003cca:	4440      	add	r0, r8
 8003ccc:	f7ff fe96 	bl	80039fc <_ZNSt7__cxx1112basic_stringIcSt11char_traitsIcESaIcEE7_S_copyEPcPKcj>
 8003cd0:	2200      	movs	r2, #0
 8003cd2:	4620      	mov	r0, r4
 8003cd4:	6823      	ldr	r3, [r4, #0]
 8003cd6:	6067      	str	r7, [r4, #4]
 8003cd8:	55da      	strb	r2, [r3, r7]
 8003cda:	b002      	add	sp, #8
 8003cdc:	e8bd 81f0 	ldmia.w	sp!, {r4, r5, r6, r7, r8, pc}
 8003ce0:	4633      	mov	r3, r6
 8003ce2:	2200      	movs	r2, #0
 8003ce4:	4641      	mov	r1, r8
 8003ce6:	4620      	mov	r0, r4
 8003ce8:	9500      	str	r5, [sp, #0]
 8003cea:	f7ff fed5 	bl	8003a98 <_ZNSt7__cxx1112basic_stringIcSt11char_traitsIcESaIcEE9_M_mutateEjjPKcj>
 8003cee:	e7ef      	b.n	8003cd0 <_ZNSt7__cxx1112basic_stringIcSt11char_traitsIcESaIcEE9_M_appendEPKcj+0x28>

08003cf0 <_ZdlPv>:
 8003cf0:	f000 b818 	b.w	8003d24 <free>

08003cf4 <_ZSt15get_new_handlerv>:
 8003cf4:	4b02      	ldr	r3, [pc, #8]	@ (8003d00 <_ZSt15get_new_handlerv+0xc>)
 8003cf6:	6818      	ldr	r0, [r3, #0]
 8003cf8:	f3bf 8f5b 	dmb	ish
 8003cfc:	4770      	bx	lr
 8003cfe:	bf00      	nop
 8003d00:	200001a4 	.word	0x200001a4

08003d04 <abort>:
 8003d04:	2006      	movs	r0, #6
 8003d06:	b508      	push	{r3, lr}
 8003d08:	f000 f91c 	bl	8003f44 <raise>
 8003d0c:	2001      	movs	r0, #1
 8003d0e:	f7fd f867 	bl	8000de0 <_exit>
	...

08003d14 <malloc>:
 8003d14:	4b02      	ldr	r3, [pc, #8]	@ (8003d20 <malloc+0xc>)
 8003d16:	4601      	mov	r1, r0
 8003d18:	6818      	ldr	r0, [r3, #0]
 8003d1a:	f000 b82d 	b.w	8003d78 <_malloc_r>
 8003d1e:	bf00      	nop
 8003d20:	20000010 	.word	0x20000010

08003d24 <free>:
 8003d24:	4b02      	ldr	r3, [pc, #8]	@ (8003d30 <free+0xc>)
 8003d26:	4601      	mov	r1, r0
 8003d28:	6818      	ldr	r0, [r3, #0]
 8003d2a:	f000 b971 	b.w	8004010 <_free_r>
 8003d2e:	bf00      	nop
 8003d30:	20000010 	.word	0x20000010

08003d34 <sbrk_aligned>:
 8003d34:	b570      	push	{r4, r5, r6, lr}
 8003d36:	4e0f      	ldr	r6, [pc, #60]	@ (8003d74 <sbrk_aligned+0x40>)
 8003d38:	460c      	mov	r4, r1
 8003d3a:	6831      	ldr	r1, [r6, #0]
 8003d3c:	4605      	mov	r5, r0
 8003d3e:	b911      	cbnz	r1, 8003d46 <sbrk_aligned+0x12>
 8003d40:	f000 f91c 	bl	8003f7c <_sbrk_r>
 8003d44:	6030      	str	r0, [r6, #0]
 8003d46:	4621      	mov	r1, r4
 8003d48:	4628      	mov	r0, r5
 8003d4a:	f000 f917 	bl	8003f7c <_sbrk_r>
 8003d4e:	1c43      	adds	r3, r0, #1
 8003d50:	d103      	bne.n	8003d5a <sbrk_aligned+0x26>
 8003d52:	f04f 34ff 	mov.w	r4, #4294967295
 8003d56:	4620      	mov	r0, r4
 8003d58:	bd70      	pop	{r4, r5, r6, pc}
 8003d5a:	1cc4      	adds	r4, r0, #3
 8003d5c:	f024 0403 	bic.w	r4, r4, #3
 8003d60:	42a0      	cmp	r0, r4
 8003d62:	d0f8      	beq.n	8003d56 <sbrk_aligned+0x22>
 8003d64:	1a21      	subs	r1, r4, r0
 8003d66:	4628      	mov	r0, r5
 8003d68:	f000 f908 	bl	8003f7c <_sbrk_r>
 8003d6c:	3001      	adds	r0, #1
 8003d6e:	d1f2      	bne.n	8003d56 <sbrk_aligned+0x22>
 8003d70:	e7ef      	b.n	8003d52 <sbrk_aligned+0x1e>
 8003d72:	bf00      	nop
 8003d74:	200001a8 	.word	0x200001a8

08003d78 <_malloc_r>:
 8003d78:	e92d 43f8 	stmdb	sp!, {r3, r4, r5, r6, r7, r8, r9, lr}
 8003d7c:	1ccd      	adds	r5, r1, #3
 8003d7e:	f025 0503 	bic.w	r5, r5, #3
 8003d82:	3508      	adds	r5, #8
 8003d84:	2d0c      	cmp	r5, #12
 8003d86:	bf38      	it	cc
 8003d88:	250c      	movcc	r5, #12
 8003d8a:	2d00      	cmp	r5, #0
 8003d8c:	4606      	mov	r6, r0
 8003d8e:	db01      	blt.n	8003d94 <_malloc_r+0x1c>
 8003d90:	42a9      	cmp	r1, r5
 8003d92:	d904      	bls.n	8003d9e <_malloc_r+0x26>
 8003d94:	230c      	movs	r3, #12
 8003d96:	6033      	str	r3, [r6, #0]
 8003d98:	2000      	movs	r0, #0
 8003d9a:	e8bd 83f8 	ldmia.w	sp!, {r3, r4, r5, r6, r7, r8, r9, pc}
 8003d9e:	f8df 80d4 	ldr.w	r8, [pc, #212]	@ 8003e74 <_malloc_r+0xfc>
 8003da2:	f000 f869 	bl	8003e78 <__malloc_lock>
 8003da6:	f8d8 3000 	ldr.w	r3, [r8]
 8003daa:	461c      	mov	r4, r3
 8003dac:	bb44      	cbnz	r4, 8003e00 <_malloc_r+0x88>
 8003dae:	4629      	mov	r1, r5
 8003db0:	4630      	mov	r0, r6
 8003db2:	f7ff ffbf 	bl	8003d34 <sbrk_aligned>
 8003db6:	1c43      	adds	r3, r0, #1
 8003db8:	4604      	mov	r4, r0
 8003dba:	d158      	bne.n	8003e6e <_malloc_r+0xf6>
 8003dbc:	f8d8 4000 	ldr.w	r4, [r8]
 8003dc0:	4627      	mov	r7, r4
 8003dc2:	2f00      	cmp	r7, #0
 8003dc4:	d143      	bne.n	8003e4e <_malloc_r+0xd6>
 8003dc6:	2c00      	cmp	r4, #0
 8003dc8:	d04b      	beq.n	8003e62 <_malloc_r+0xea>
 8003dca:	6823      	ldr	r3, [r4, #0]
 8003dcc:	4639      	mov	r1, r7
 8003dce:	4630      	mov	r0, r6
 8003dd0:	eb04 0903 	add.w	r9, r4, r3
 8003dd4:	f000 f8d2 	bl	8003f7c <_sbrk_r>
 8003dd8:	4581      	cmp	r9, r0
 8003dda:	d142      	bne.n	8003e62 <_malloc_r+0xea>
 8003ddc:	6821      	ldr	r1, [r4, #0]
 8003dde:	4630      	mov	r0, r6
 8003de0:	1a6d      	subs	r5, r5, r1
 8003de2:	4629      	mov	r1, r5
 8003de4:	f7ff ffa6 	bl	8003d34 <sbrk_aligned>
 8003de8:	3001      	adds	r0, #1
 8003dea:	d03a      	beq.n	8003e62 <_malloc_r+0xea>
 8003dec:	6823      	ldr	r3, [r4, #0]
 8003dee:	442b      	add	r3, r5
 8003df0:	6023      	str	r3, [r4, #0]
 8003df2:	f8d8 3000 	ldr.w	r3, [r8]
 8003df6:	685a      	ldr	r2, [r3, #4]
 8003df8:	bb62      	cbnz	r2, 8003e54 <_malloc_r+0xdc>
 8003dfa:	f8c8 7000 	str.w	r7, [r8]
 8003dfe:	e00f      	b.n	8003e20 <_malloc_r+0xa8>
 8003e00:	6822      	ldr	r2, [r4, #0]
 8003e02:	1b52      	subs	r2, r2, r5
 8003e04:	d420      	bmi.n	8003e48 <_malloc_r+0xd0>
 8003e06:	2a0b      	cmp	r2, #11
 8003e08:	d917      	bls.n	8003e3a <_malloc_r+0xc2>
 8003e0a:	1961      	adds	r1, r4, r5
 8003e0c:	42a3      	cmp	r3, r4
 8003e0e:	6025      	str	r5, [r4, #0]
 8003e10:	bf18      	it	ne
 8003e12:	6059      	strne	r1, [r3, #4]
 8003e14:	6863      	ldr	r3, [r4, #4]
 8003e16:	bf08      	it	eq
 8003e18:	f8c8 1000 	streq.w	r1, [r8]
 8003e1c:	5162      	str	r2, [r4, r5]
 8003e1e:	604b      	str	r3, [r1, #4]
 8003e20:	4630      	mov	r0, r6
 8003e22:	f000 f82f 	bl	8003e84 <__malloc_unlock>
 8003e26:	f104 000b 	add.w	r0, r4, #11
 8003e2a:	1d23      	adds	r3, r4, #4
 8003e2c:	f020 0007 	bic.w	r0, r0, #7
 8003e30:	1ac2      	subs	r2, r0, r3
 8003e32:	bf1c      	itt	ne
 8003e34:	1a1b      	subne	r3, r3, r0
 8003e36:	50a3      	strne	r3, [r4, r2]
 8003e38:	e7af      	b.n	8003d9a <_malloc_r+0x22>
 8003e3a:	6862      	ldr	r2, [r4, #4]
 8003e3c:	42a3      	cmp	r3, r4
 8003e3e:	bf0c      	ite	eq
 8003e40:	f8c8 2000 	streq.w	r2, [r8]
 8003e44:	605a      	strne	r2, [r3, #4]
 8003e46:	e7eb      	b.n	8003e20 <_malloc_r+0xa8>
 8003e48:	4623      	mov	r3, r4
 8003e4a:	6864      	ldr	r4, [r4, #4]
 8003e4c:	e7ae      	b.n	8003dac <_malloc_r+0x34>
 8003e4e:	463c      	mov	r4, r7
 8003e50:	687f      	ldr	r7, [r7, #4]
 8003e52:	e7b6      	b.n	8003dc2 <_malloc_r+0x4a>
 8003e54:	461a      	mov	r2, r3
 8003e56:	685b      	ldr	r3, [r3, #4]
 8003e58:	42a3      	cmp	r3, r4
 8003e5a:	d1fb      	bne.n	8003e54 <_malloc_r+0xdc>
 8003e5c:	2300      	movs	r3, #0
 8003e5e:	6053      	str	r3, [r2, #4]
 8003e60:	e7de      	b.n	8003e20 <_malloc_r+0xa8>
 8003e62:	230c      	movs	r3, #12
 8003e64:	4630      	mov	r0, r6
 8003e66:	6033      	str	r3, [r6, #0]
 8003e68:	f000 f80c 	bl	8003e84 <__malloc_unlock>
 8003e6c:	e794      	b.n	8003d98 <_malloc_r+0x20>
 8003e6e:	6005      	str	r5, [r0, #0]
 8003e70:	e7d6      	b.n	8003e20 <_malloc_r+0xa8>
 8003e72:	bf00      	nop
 8003e74:	200001ac 	.word	0x200001ac

08003e78 <__malloc_lock>:
 8003e78:	4801      	ldr	r0, [pc, #4]	@ (8003e80 <__malloc_lock+0x8>)
 8003e7a:	f000 b8b9 	b.w	8003ff0 <__retarget_lock_acquire_recursive>
 8003e7e:	bf00      	nop
 8003e80:	200002ec 	.word	0x200002ec

08003e84 <__malloc_unlock>:
 8003e84:	4801      	ldr	r0, [pc, #4]	@ (8003e8c <__malloc_unlock+0x8>)
 8003e86:	f000 b8b4 	b.w	8003ff2 <__retarget_lock_release_recursive>
 8003e8a:	bf00      	nop
 8003e8c:	200002ec 	.word	0x200002ec

08003e90 <memcmp>:
 8003e90:	b510      	push	{r4, lr}
 8003e92:	3901      	subs	r1, #1
 8003e94:	4402      	add	r2, r0
 8003e96:	4290      	cmp	r0, r2
 8003e98:	d101      	bne.n	8003e9e <memcmp+0xe>
 8003e9a:	2000      	movs	r0, #0
 8003e9c:	e005      	b.n	8003eaa <memcmp+0x1a>
 8003e9e:	7803      	ldrb	r3, [r0, #0]
 8003ea0:	f811 4f01 	ldrb.w	r4, [r1, #1]!
 8003ea4:	42a3      	cmp	r3, r4
 8003ea6:	d001      	beq.n	8003eac <memcmp+0x1c>
 8003ea8:	1b18      	subs	r0, r3, r4
 8003eaa:	bd10      	pop	{r4, pc}
 8003eac:	3001      	adds	r0, #1
 8003eae:	e7f2      	b.n	8003e96 <memcmp+0x6>

08003eb0 <memmove>:
 8003eb0:	4288      	cmp	r0, r1
 8003eb2:	b510      	push	{r4, lr}
 8003eb4:	eb01 0402 	add.w	r4, r1, r2
 8003eb8:	d902      	bls.n	8003ec0 <memmove+0x10>
 8003eba:	4284      	cmp	r4, r0
 8003ebc:	4623      	mov	r3, r4
 8003ebe:	d807      	bhi.n	8003ed0 <memmove+0x20>
 8003ec0:	1e43      	subs	r3, r0, #1
 8003ec2:	42a1      	cmp	r1, r4
 8003ec4:	d007      	beq.n	8003ed6 <memmove+0x26>
 8003ec6:	f811 2b01 	ldrb.w	r2, [r1], #1
 8003eca:	f803 2f01 	strb.w	r2, [r3, #1]!
 8003ece:	e7f8      	b.n	8003ec2 <memmove+0x12>
 8003ed0:	4402      	add	r2, r0
 8003ed2:	4282      	cmp	r2, r0
 8003ed4:	d100      	bne.n	8003ed8 <memmove+0x28>
 8003ed6:	bd10      	pop	{r4, pc}
 8003ed8:	f813 1d01 	ldrb.w	r1, [r3, #-1]!
 8003edc:	f802 1d01 	strb.w	r1, [r2, #-1]!
 8003ee0:	e7f7      	b.n	8003ed2 <memmove+0x22>

08003ee2 <memset>:
 8003ee2:	4603      	mov	r3, r0
 8003ee4:	4402      	add	r2, r0
 8003ee6:	4293      	cmp	r3, r2
 8003ee8:	d100      	bne.n	8003eec <memset+0xa>
 8003eea:	4770      	bx	lr
 8003eec:	f803 1b01 	strb.w	r1, [r3], #1
 8003ef0:	e7f9      	b.n	8003ee6 <memset+0x4>

08003ef2 <_raise_r>:
 8003ef2:	291f      	cmp	r1, #31
 8003ef4:	b538      	push	{r3, r4, r5, lr}
 8003ef6:	4605      	mov	r5, r0
 8003ef8:	460c      	mov	r4, r1
 8003efa:	d904      	bls.n	8003f06 <_raise_r+0x14>
 8003efc:	2316      	movs	r3, #22
 8003efe:	6003      	str	r3, [r0, #0]
 8003f00:	f04f 30ff 	mov.w	r0, #4294967295
 8003f04:	bd38      	pop	{r3, r4, r5, pc}
 8003f06:	6bc2      	ldr	r2, [r0, #60]	@ 0x3c
 8003f08:	b112      	cbz	r2, 8003f10 <_raise_r+0x1e>
 8003f0a:	f852 3021 	ldr.w	r3, [r2, r1, lsl #2]
 8003f0e:	b94b      	cbnz	r3, 8003f24 <_raise_r+0x32>
 8003f10:	4628      	mov	r0, r5
 8003f12:	f000 f831 	bl	8003f78 <_getpid_r>
 8003f16:	4622      	mov	r2, r4
 8003f18:	4601      	mov	r1, r0
 8003f1a:	4628      	mov	r0, r5
 8003f1c:	e8bd 4038 	ldmia.w	sp!, {r3, r4, r5, lr}
 8003f20:	f000 b818 	b.w	8003f54 <_kill_r>
 8003f24:	2b01      	cmp	r3, #1
 8003f26:	d00a      	beq.n	8003f3e <_raise_r+0x4c>
 8003f28:	1c59      	adds	r1, r3, #1
 8003f2a:	d103      	bne.n	8003f34 <_raise_r+0x42>
 8003f2c:	2316      	movs	r3, #22
 8003f2e:	6003      	str	r3, [r0, #0]
 8003f30:	2001      	movs	r0, #1
 8003f32:	e7e7      	b.n	8003f04 <_raise_r+0x12>
 8003f34:	2100      	movs	r1, #0
 8003f36:	4620      	mov	r0, r4
 8003f38:	f842 1024 	str.w	r1, [r2, r4, lsl #2]
 8003f3c:	4798      	blx	r3
 8003f3e:	2000      	movs	r0, #0
 8003f40:	e7e0      	b.n	8003f04 <_raise_r+0x12>
	...

08003f44 <raise>:
 8003f44:	4b02      	ldr	r3, [pc, #8]	@ (8003f50 <raise+0xc>)
 8003f46:	4601      	mov	r1, r0
 8003f48:	6818      	ldr	r0, [r3, #0]
 8003f4a:	f7ff bfd2 	b.w	8003ef2 <_raise_r>
 8003f4e:	bf00      	nop
 8003f50:	20000010 	.word	0x20000010

08003f54 <_kill_r>:
 8003f54:	b538      	push	{r3, r4, r5, lr}
 8003f56:	2300      	movs	r3, #0
 8003f58:	4d06      	ldr	r5, [pc, #24]	@ (8003f74 <_kill_r+0x20>)
 8003f5a:	4604      	mov	r4, r0
 8003f5c:	4608      	mov	r0, r1
 8003f5e:	4611      	mov	r1, r2
 8003f60:	602b      	str	r3, [r5, #0]
 8003f62:	f7fc ff35 	bl	8000dd0 <_kill>
 8003f66:	1c43      	adds	r3, r0, #1
 8003f68:	d102      	bne.n	8003f70 <_kill_r+0x1c>
 8003f6a:	682b      	ldr	r3, [r5, #0]
 8003f6c:	b103      	cbz	r3, 8003f70 <_kill_r+0x1c>
 8003f6e:	6023      	str	r3, [r4, #0]
 8003f70:	bd38      	pop	{r3, r4, r5, pc}
 8003f72:	bf00      	nop
 8003f74:	200002e8 	.word	0x200002e8

08003f78 <_getpid_r>:
 8003f78:	f7fc bf28 	b.w	8000dcc <_getpid>

08003f7c <_sbrk_r>:
 8003f7c:	b538      	push	{r3, r4, r5, lr}
 8003f7e:	2300      	movs	r3, #0
 8003f80:	4d05      	ldr	r5, [pc, #20]	@ (8003f98 <_sbrk_r+0x1c>)
 8003f82:	4604      	mov	r4, r0
 8003f84:	4608      	mov	r0, r1
 8003f86:	602b      	str	r3, [r5, #0]
 8003f88:	f7fc ff30 	bl	8000dec <_sbrk>
 8003f8c:	1c43      	adds	r3, r0, #1
 8003f8e:	d102      	bne.n	8003f96 <_sbrk_r+0x1a>
 8003f90:	682b      	ldr	r3, [r5, #0]
 8003f92:	b103      	cbz	r3, 8003f96 <_sbrk_r+0x1a>
 8003f94:	6023      	str	r3, [r4, #0]
 8003f96:	bd38      	pop	{r3, r4, r5, pc}
 8003f98:	200002e8 	.word	0x200002e8

08003f9c <__errno>:
 8003f9c:	4b01      	ldr	r3, [pc, #4]	@ (8003fa4 <__errno+0x8>)
 8003f9e:	6818      	ldr	r0, [r3, #0]
 8003fa0:	4770      	bx	lr
 8003fa2:	bf00      	nop
 8003fa4:	20000010 	.word	0x20000010

08003fa8 <__libc_init_array>:
 8003fa8:	b570      	push	{r4, r5, r6, lr}
 8003faa:	2600      	movs	r6, #0
 8003fac:	4d0c      	ldr	r5, [pc, #48]	@ (8003fe0 <__libc_init_array+0x38>)
 8003fae:	4b0d      	ldr	r3, [pc, #52]	@ (8003fe4 <__libc_init_array+0x3c>)
 8003fb0:	1b5b      	subs	r3, r3, r5
 8003fb2:	109c      	asrs	r4, r3, #2
 8003fb4:	42a6      	cmp	r6, r4
 8003fb6:	d109      	bne.n	8003fcc <__libc_init_array+0x24>
 8003fb8:	2600      	movs	r6, #0
 8003fba:	f000 f871 	bl	80040a0 <_init>
 8003fbe:	4d0a      	ldr	r5, [pc, #40]	@ (8003fe8 <__libc_init_array+0x40>)
 8003fc0:	4b0a      	ldr	r3, [pc, #40]	@ (8003fec <__libc_init_array+0x44>)
 8003fc2:	1b5b      	subs	r3, r3, r5
 8003fc4:	109c      	asrs	r4, r3, #2
 8003fc6:	42a6      	cmp	r6, r4
 8003fc8:	d105      	bne.n	8003fd6 <__libc_init_array+0x2e>
 8003fca:	bd70      	pop	{r4, r5, r6, pc}
 8003fcc:	f855 3b04 	ldr.w	r3, [r5], #4
 8003fd0:	4798      	blx	r3
 8003fd2:	3601      	adds	r6, #1
 8003fd4:	e7ee      	b.n	8003fb4 <__libc_init_array+0xc>
 8003fd6:	f855 3b04 	ldr.w	r3, [r5], #4
 8003fda:	4798      	blx	r3
 8003fdc:	3601      	adds	r6, #1
 8003fde:	e7f2      	b.n	8003fc6 <__libc_init_array+0x1e>
 8003fe0:	08004318 	.word	0x08004318
 8003fe4:	08004318 	.word	0x08004318
 8003fe8:	08004318 	.word	0x08004318
 8003fec:	08004320 	.word	0x08004320

08003ff0 <__retarget_lock_acquire_recursive>:
 8003ff0:	4770      	bx	lr

08003ff2 <__retarget_lock_release_recursive>:
 8003ff2:	4770      	bx	lr

08003ff4 <memcpy>:
 8003ff4:	440a      	add	r2, r1
 8003ff6:	4291      	cmp	r1, r2
 8003ff8:	f100 33ff 	add.w	r3, r0, #4294967295
 8003ffc:	d100      	bne.n	8004000 <memcpy+0xc>
 8003ffe:	4770      	bx	lr
 8004000:	b510      	push	{r4, lr}
 8004002:	f811 4b01 	ldrb.w	r4, [r1], #1
 8004006:	4291      	cmp	r1, r2
 8004008:	f803 4f01 	strb.w	r4, [r3, #1]!
 800400c:	d1f9      	bne.n	8004002 <memcpy+0xe>
 800400e:	bd10      	pop	{r4, pc}

08004010 <_free_r>:
 8004010:	b538      	push	{r3, r4, r5, lr}
 8004012:	4605      	mov	r5, r0
 8004014:	2900      	cmp	r1, #0
 8004016:	d040      	beq.n	800409a <_free_r+0x8a>
 8004018:	f851 3c04 	ldr.w	r3, [r1, #-4]
 800401c:	1f0c      	subs	r4, r1, #4
 800401e:	2b00      	cmp	r3, #0
 8004020:	bfb8      	it	lt
 8004022:	18e4      	addlt	r4, r4, r3
 8004024:	f7ff ff28 	bl	8003e78 <__malloc_lock>
 8004028:	4a1c      	ldr	r2, [pc, #112]	@ (800409c <_free_r+0x8c>)
 800402a:	6813      	ldr	r3, [r2, #0]
 800402c:	b933      	cbnz	r3, 800403c <_free_r+0x2c>
 800402e:	6063      	str	r3, [r4, #4]
 8004030:	6014      	str	r4, [r2, #0]
 8004032:	4628      	mov	r0, r5
 8004034:	e8bd 4038 	ldmia.w	sp!, {r3, r4, r5, lr}
 8004038:	f7ff bf24 	b.w	8003e84 <__malloc_unlock>
 800403c:	42a3      	cmp	r3, r4
 800403e:	d908      	bls.n	8004052 <_free_r+0x42>
 8004040:	6820      	ldr	r0, [r4, #0]
 8004042:	1821      	adds	r1, r4, r0
 8004044:	428b      	cmp	r3, r1
 8004046:	bf01      	itttt	eq
 8004048:	6819      	ldreq	r1, [r3, #0]
 800404a:	685b      	ldreq	r3, [r3, #4]
 800404c:	1809      	addeq	r1, r1, r0
 800404e:	6021      	streq	r1, [r4, #0]
 8004050:	e7ed      	b.n	800402e <_free_r+0x1e>
 8004052:	461a      	mov	r2, r3
 8004054:	685b      	ldr	r3, [r3, #4]
 8004056:	b10b      	cbz	r3, 800405c <_free_r+0x4c>
 8004058:	42a3      	cmp	r3, r4
 800405a:	d9fa      	bls.n	8004052 <_free_r+0x42>
 800405c:	6811      	ldr	r1, [r2, #0]
 800405e:	1850      	adds	r0, r2, r1
 8004060:	42a0      	cmp	r0, r4
 8004062:	d10b      	bne.n	800407c <_free_r+0x6c>
 8004064:	6820      	ldr	r0, [r4, #0]
 8004066:	4401      	add	r1, r0
 8004068:	1850      	adds	r0, r2, r1
 800406a:	4283      	cmp	r3, r0
 800406c:	6011      	str	r1, [r2, #0]
 800406e:	d1e0      	bne.n	8004032 <_free_r+0x22>
 8004070:	6818      	ldr	r0, [r3, #0]
 8004072:	685b      	ldr	r3, [r3, #4]
 8004074:	4408      	add	r0, r1
 8004076:	6010      	str	r0, [r2, #0]
 8004078:	6053      	str	r3, [r2, #4]
 800407a:	e7da      	b.n	8004032 <_free_r+0x22>
 800407c:	d902      	bls.n	8004084 <_free_r+0x74>
 800407e:	230c      	movs	r3, #12
 8004080:	602b      	str	r3, [r5, #0]
 8004082:	e7d6      	b.n	8004032 <_free_r+0x22>
 8004084:	6820      	ldr	r0, [r4, #0]
 8004086:	1821      	adds	r1, r4, r0
 8004088:	428b      	cmp	r3, r1
 800408a:	bf01      	itttt	eq
 800408c:	6819      	ldreq	r1, [r3, #0]
 800408e:	685b      	ldreq	r3, [r3, #4]
 8004090:	1809      	addeq	r1, r1, r0
 8004092:	6021      	streq	r1, [r4, #0]
 8004094:	6063      	str	r3, [r4, #4]
 8004096:	6054      	str	r4, [r2, #4]
 8004098:	e7cb      	b.n	8004032 <_free_r+0x22>
 800409a:	bd38      	pop	{r3, r4, r5, pc}
 800409c:	200001ac 	.word	0x200001ac

080040a0 <_init>:
 80040a0:	b5f8      	push	{r3, r4, r5, r6, r7, lr}
 80040a2:	bf00      	nop
 80040a4:	bcf8      	pop	{r3, r4, r5, r6, r7}
 80040a6:	bc08      	pop	{r3}
 80040a8:	469e      	mov	lr, r3
 80040aa:	4770      	bx	lr

080040ac <_fini>:
 80040ac:	b5f8      	push	{r3, r4, r5, r6, r7, lr}
 80040ae:	bf00      	nop
 80040b0:	bcf8      	pop	{r3, r4, r5, r6, r7}
 80040b2:	bc08      	pop	{r3}
 80040b4:	469e      	mov	lr, r3
 80040b6:	4770      	bx	lr
